Archive member included because of file (symbol)

/Users/user/pebble-dev/PebbleSDK-2.2/Pebble/lib/libpebble.a(tmpZR3mVYpebble.o)
                              src/stopwatch.c.12.o (animation_schedule)
/Users/user/pebble-dev/PebbleSDK-2.2/arm-cs-tools/bin/../lib/gcc/arm-none-eabi/4.7.2/thumb2/libgcc.a(_arm_addsubdf3.o)
                              src/stopwatch.c.12.o (__aeabi_dsub)
/Users/user/pebble-dev/PebbleSDK-2.2/arm-cs-tools/bin/../lib/gcc/arm-none-eabi/4.7.2/thumb2/libgcc.a(_arm_muldivdf3.o)
                              src/common.c.12.o (__aeabi_dmul)
/Users/user/pebble-dev/PebbleSDK-2.2/arm-cs-tools/bin/../lib/gcc/arm-none-eabi/4.7.2/thumb2/libgcc.a(_arm_cmpdf2.o)
                              src/stopwatch.c.12.o (__aeabi_dcmpeq)
/Users/user/pebble-dev/PebbleSDK-2.2/arm-cs-tools/bin/../lib/gcc/arm-none-eabi/4.7.2/thumb2/libgcc.a(_arm_fixdfsi.o)
                              src/common.c.12.o (__aeabi_d2iz)
/Users/user/pebble-dev/PebbleSDK-2.2/arm-cs-tools/bin/../lib/gcc/arm-none-eabi/4.7.2/thumb2/libgcc.a(_arm_fixunsdfsi.o)
                              src/stopwatch.c.12.o (__aeabi_d2uiz)

Discarded input sections

 .text          0x0000000000000000        0x0 /Users/user/pebble-dev/PebbleSDK-2.2/arm-cs-tools/bin/../lib/gcc/arm-none-eabi/4.7.2/thumb2/crti.o
 .bss           0x0000000000000000        0x0 /Users/user/pebble-dev/PebbleSDK-2.2/arm-cs-tools/bin/../lib/gcc/arm-none-eabi/4.7.2/thumb2/crti.o
 .init          0x0000000000000000        0x4 /Users/user/pebble-dev/PebbleSDK-2.2/arm-cs-tools/bin/../lib/gcc/arm-none-eabi/4.7.2/thumb2/crti.o
 .fini          0x0000000000000000        0x4 /Users/user/pebble-dev/PebbleSDK-2.2/arm-cs-tools/bin/../lib/gcc/arm-none-eabi/4.7.2/thumb2/crti.o
 .text          0x0000000000000000       0xc8 /Users/user/pebble-dev/PebbleSDK-2.2/arm-cs-tools/bin/../lib/gcc/arm-none-eabi/4.7.2/thumb2/crtbegin.o
 .bss           0x0000000000000000       0x1c /Users/user/pebble-dev/PebbleSDK-2.2/arm-cs-tools/bin/../lib/gcc/arm-none-eabi/4.7.2/thumb2/crtbegin.o
 .init_array    0x0000000000000000        0x4 /Users/user/pebble-dev/PebbleSDK-2.2/arm-cs-tools/bin/../lib/gcc/arm-none-eabi/4.7.2/thumb2/crtbegin.o
 .fini_array    0x0000000000000000        0x4 /Users/user/pebble-dev/PebbleSDK-2.2/arm-cs-tools/bin/../lib/gcc/arm-none-eabi/4.7.2/thumb2/crtbegin.o
 .eh_frame      0x0000000000000000        0x0 /Users/user/pebble-dev/PebbleSDK-2.2/arm-cs-tools/bin/../lib/gcc/arm-none-eabi/4.7.2/thumb2/crtbegin.o
 .jcr           0x0000000000000000        0x0 /Users/user/pebble-dev/PebbleSDK-2.2/arm-cs-tools/bin/../lib/gcc/arm-none-eabi/4.7.2/thumb2/crtbegin.o
 .tm_clone_table
                0x0000000000000000        0x0 /Users/user/pebble-dev/PebbleSDK-2.2/arm-cs-tools/bin/../lib/gcc/arm-none-eabi/4.7.2/thumb2/crtbegin.o
 .text          0x0000000000000000        0x0 src/common.c.12.o
 .bss           0x0000000000000000        0x0 src/common.c.12.o
 .text          0x0000000000000000        0x0 src/laps.c.12.o
 .bss           0x0000000000000000        0x0 src/laps.c.12.o
 .text.clear_laps
                0x0000000000000000       0x18 src/laps.c.12.o
 .bss.time_ring_length
                0x0000000000000000        0x4 src/laps.c.12.o
 .bss.time_ring_head
                0x0000000000000000        0x4 src/laps.c.12.o
 .text          0x0000000000000000        0x0 src/spritz.c.12.o
 .bss           0x0000000000000000        0x0 src/spritz.c.12.o
 .text          0x0000000000000000        0x0 src/stopwatch.c.12.o
 .bss           0x0000000000000000        0x0 src/stopwatch.c.12.o
 .text          0x0000000000000000        0x0 appinfo.auto.c.12.o
 .bss           0x0000000000000000        0x0 appinfo.auto.c.12.o
 .bss           0x0000000000000000        0x0 /Users/user/pebble-dev/PebbleSDK-2.2/Pebble/lib/libpebble.a(tmpZR3mVYpebble.o)
 .text.accel_data_service_subscribe__deprecated
                0x0000000000000000        0xc /Users/user/pebble-dev/PebbleSDK-2.2/Pebble/lib/libpebble.a(tmpZR3mVYpebble.o)
 .text.accel_data_service_unsubscribe
                0x0000000000000000        0xc /Users/user/pebble-dev/PebbleSDK-2.2/Pebble/lib/libpebble.a(tmpZR3mVYpebble.o)
 .text.accel_service_peek
                0x0000000000000000        0xc /Users/user/pebble-dev/PebbleSDK-2.2/Pebble/lib/libpebble.a(tmpZR3mVYpebble.o)
 .text.accel_service_set_samples_per_update
                0x0000000000000000        0xc /Users/user/pebble-dev/PebbleSDK-2.2/Pebble/lib/libpebble.a(tmpZR3mVYpebble.o)
 .text.accel_service_set_sampling_rate
                0x0000000000000000        0xc /Users/user/pebble-dev/PebbleSDK-2.2/Pebble/lib/libpebble.a(tmpZR3mVYpebble.o)
 .text.accel_tap_service_subscribe
                0x0000000000000000        0xc /Users/user/pebble-dev/PebbleSDK-2.2/Pebble/lib/libpebble.a(tmpZR3mVYpebble.o)
 .text.accel_tap_service_unsubscribe
                0x0000000000000000        0xc /Users/user/pebble-dev/PebbleSDK-2.2/Pebble/lib/libpebble.a(tmpZR3mVYpebble.o)
 .text.action_bar_layer_add_to_window
                0x0000000000000000        0xc /Users/user/pebble-dev/PebbleSDK-2.2/Pebble/lib/libpebble.a(tmpZR3mVYpebble.o)
 .text.action_bar_layer_clear_icon
                0x0000000000000000        0xc /Users/user/pebble-dev/PebbleSDK-2.2/Pebble/lib/libpebble.a(tmpZR3mVYpebble.o)
 .text.action_bar_layer_create
                0x0000000000000000        0xc /Users/user/pebble-dev/PebbleSDK-2.2/Pebble/lib/libpebble.a(tmpZR3mVYpebble.o)
 .text.action_bar_layer_destroy
                0x0000000000000000        0xc /Users/user/pebble-dev/PebbleSDK-2.2/Pebble/lib/libpebble.a(tmpZR3mVYpebble.o)
 .text.action_bar_layer_get_layer
                0x0000000000000000        0xc /Users/user/pebble-dev/PebbleSDK-2.2/Pebble/lib/libpebble.a(tmpZR3mVYpebble.o)
 .text.action_bar_layer_remove_from_window
                0x0000000000000000        0xc /Users/user/pebble-dev/PebbleSDK-2.2/Pebble/lib/libpebble.a(tmpZR3mVYpebble.o)
 .text.action_bar_layer_set_background_color
                0x0000000000000000        0xc /Users/user/pebble-dev/PebbleSDK-2.2/Pebble/lib/libpebble.a(tmpZR3mVYpebble.o)
 .text.action_bar_layer_set_click_config_provider
                0x0000000000000000        0xc /Users/user/pebble-dev/PebbleSDK-2.2/Pebble/lib/libpebble.a(tmpZR3mVYpebble.o)
 .text.action_bar_layer_set_context
                0x0000000000000000        0xc /Users/user/pebble-dev/PebbleSDK-2.2/Pebble/lib/libpebble.a(tmpZR3mVYpebble.o)
 .text.action_bar_layer_set_icon
                0x0000000000000000        0xc /Users/user/pebble-dev/PebbleSDK-2.2/Pebble/lib/libpebble.a(tmpZR3mVYpebble.o)
 .text.animation_create
                0x0000000000000000        0xc /Users/user/pebble-dev/PebbleSDK-2.2/Pebble/lib/libpebble.a(tmpZR3mVYpebble.o)
 .text.animation_destroy
                0x0000000000000000        0xc /Users/user/pebble-dev/PebbleSDK-2.2/Pebble/lib/libpebble.a(tmpZR3mVYpebble.o)
 .text.animation_get_context
                0x0000000000000000        0xc /Users/user/pebble-dev/PebbleSDK-2.2/Pebble/lib/libpebble.a(tmpZR3mVYpebble.o)
 .text.animation_is_scheduled
                0x0000000000000000        0xc /Users/user/pebble-dev/PebbleSDK-2.2/Pebble/lib/libpebble.a(tmpZR3mVYpebble.o)
 .text.animation_set_implementation
                0x0000000000000000        0xc /Users/user/pebble-dev/PebbleSDK-2.2/Pebble/lib/libpebble.a(tmpZR3mVYpebble.o)
 .text.animation_unschedule
                0x0000000000000000        0xc /Users/user/pebble-dev/PebbleSDK-2.2/Pebble/lib/libpebble.a(tmpZR3mVYpebble.o)
 .text.animation_unschedule_all
                0x0000000000000000        0xc /Users/user/pebble-dev/PebbleSDK-2.2/Pebble/lib/libpebble.a(tmpZR3mVYpebble.o)
 .text.app_comm_get_sniff_interval
                0x0000000000000000        0xc /Users/user/pebble-dev/PebbleSDK-2.2/Pebble/lib/libpebble.a(tmpZR3mVYpebble.o)
 .text.app_message_deregister_callbacks
                0x0000000000000000        0xc /Users/user/pebble-dev/PebbleSDK-2.2/Pebble/lib/libpebble.a(tmpZR3mVYpebble.o)
 .text.app_sync_get
                0x0000000000000000        0xc /Users/user/pebble-dev/PebbleSDK-2.2/Pebble/lib/libpebble.a(tmpZR3mVYpebble.o)
 .text.app_sync_set
                0x0000000000000000        0xc /Users/user/pebble-dev/PebbleSDK-2.2/Pebble/lib/libpebble.a(tmpZR3mVYpebble.o)
 .text.app_timer_reschedule
                0x0000000000000000        0xc /Users/user/pebble-dev/PebbleSDK-2.2/Pebble/lib/libpebble.a(tmpZR3mVYpebble.o)
 .text.atan2_lookup
                0x0000000000000000        0xc /Users/user/pebble-dev/PebbleSDK-2.2/Pebble/lib/libpebble.a(tmpZR3mVYpebble.o)
 .text.atoi     0x0000000000000000        0xc /Users/user/pebble-dev/PebbleSDK-2.2/Pebble/lib/libpebble.a(tmpZR3mVYpebble.o)
 .text.atol     0x0000000000000000        0xc /Users/user/pebble-dev/PebbleSDK-2.2/Pebble/lib/libpebble.a(tmpZR3mVYpebble.o)
 .text.battery_state_service_peek
                0x0000000000000000        0xc /Users/user/pebble-dev/PebbleSDK-2.2/Pebble/lib/libpebble.a(tmpZR3mVYpebble.o)
 .text.battery_state_service_subscribe
                0x0000000000000000        0xc /Users/user/pebble-dev/PebbleSDK-2.2/Pebble/lib/libpebble.a(tmpZR3mVYpebble.o)
 .text.battery_state_service_unsubscribe
                0x0000000000000000        0xc /Users/user/pebble-dev/PebbleSDK-2.2/Pebble/lib/libpebble.a(tmpZR3mVYpebble.o)
 .text.bitmap_layer_get_layer
                0x0000000000000000        0xc /Users/user/pebble-dev/PebbleSDK-2.2/Pebble/lib/libpebble.a(tmpZR3mVYpebble.o)
 .text.bitmap_layer_set_alignment
                0x0000000000000000        0xc /Users/user/pebble-dev/PebbleSDK-2.2/Pebble/lib/libpebble.a(tmpZR3mVYpebble.o)
 .text.bitmap_layer_set_background_color
                0x0000000000000000        0xc /Users/user/pebble-dev/PebbleSDK-2.2/Pebble/lib/libpebble.a(tmpZR3mVYpebble.o)
 .text.bitmap_layer_set_compositing_mode
                0x0000000000000000        0xc /Users/user/pebble-dev/PebbleSDK-2.2/Pebble/lib/libpebble.a(tmpZR3mVYpebble.o)
 .text.bluetooth_connection_service_peek
                0x0000000000000000        0xc /Users/user/pebble-dev/PebbleSDK-2.2/Pebble/lib/libpebble.a(tmpZR3mVYpebble.o)
 .text.bluetooth_connection_service_subscribe
                0x0000000000000000        0xc /Users/user/pebble-dev/PebbleSDK-2.2/Pebble/lib/libpebble.a(tmpZR3mVYpebble.o)
 .text.bluetooth_connection_service_unsubscribe
                0x0000000000000000        0xc /Users/user/pebble-dev/PebbleSDK-2.2/Pebble/lib/libpebble.a(tmpZR3mVYpebble.o)
 .text.click_number_of_clicks_counted
                0x0000000000000000        0xc /Users/user/pebble-dev/PebbleSDK-2.2/Pebble/lib/libpebble.a(tmpZR3mVYpebble.o)
 .text.click_recognizer_get_button_id
                0x0000000000000000        0xc /Users/user/pebble-dev/PebbleSDK-2.2/Pebble/lib/libpebble.a(tmpZR3mVYpebble.o)
 .text.clock_copy_time_string
                0x0000000000000000        0xc /Users/user/pebble-dev/PebbleSDK-2.2/Pebble/lib/libpebble.a(tmpZR3mVYpebble.o)
 .text.clock_is_24h_style
                0x0000000000000000        0xc /Users/user/pebble-dev/PebbleSDK-2.2/Pebble/lib/libpebble.a(tmpZR3mVYpebble.o)
 .text.cos_lookup
                0x0000000000000000        0xc /Users/user/pebble-dev/PebbleSDK-2.2/Pebble/lib/libpebble.a(tmpZR3mVYpebble.o)
 .text.dict_calc_buffer_size
                0x0000000000000000        0xc /Users/user/pebble-dev/PebbleSDK-2.2/Pebble/lib/libpebble.a(tmpZR3mVYpebble.o)
 .text.dict_calc_buffer_size_from_tuplets
                0x0000000000000000        0xc /Users/user/pebble-dev/PebbleSDK-2.2/Pebble/lib/libpebble.a(tmpZR3mVYpebble.o)
 .text.dict_merge
                0x0000000000000000        0xc /Users/user/pebble-dev/PebbleSDK-2.2/Pebble/lib/libpebble.a(tmpZR3mVYpebble.o)
 .text.dict_read_begin_from_buffer
                0x0000000000000000        0xc /Users/user/pebble-dev/PebbleSDK-2.2/Pebble/lib/libpebble.a(tmpZR3mVYpebble.o)
 .text.dict_read_first
                0x0000000000000000        0xc /Users/user/pebble-dev/PebbleSDK-2.2/Pebble/lib/libpebble.a(tmpZR3mVYpebble.o)
 .text.dict_read_next
                0x0000000000000000        0xc /Users/user/pebble-dev/PebbleSDK-2.2/Pebble/lib/libpebble.a(tmpZR3mVYpebble.o)
 .text.dict_serialize_tuplets
                0x0000000000000000        0xc /Users/user/pebble-dev/PebbleSDK-2.2/Pebble/lib/libpebble.a(tmpZR3mVYpebble.o)
 .text.dict_serialize_tuplets_to_buffer__deprecated
                0x0000000000000000        0xc /Users/user/pebble-dev/PebbleSDK-2.2/Pebble/lib/libpebble.a(tmpZR3mVYpebble.o)
 .text.dict_serialize_tuplets_to_buffer_with_iter
                0x0000000000000000        0xc /Users/user/pebble-dev/PebbleSDK-2.2/Pebble/lib/libpebble.a(tmpZR3mVYpebble.o)
 .text.dict_write_begin
                0x0000000000000000        0xc /Users/user/pebble-dev/PebbleSDK-2.2/Pebble/lib/libpebble.a(tmpZR3mVYpebble.o)
 .text.dict_write_cstring
                0x0000000000000000        0xc /Users/user/pebble-dev/PebbleSDK-2.2/Pebble/lib/libpebble.a(tmpZR3mVYpebble.o)
 .text.dict_write_data
                0x0000000000000000        0xc /Users/user/pebble-dev/PebbleSDK-2.2/Pebble/lib/libpebble.a(tmpZR3mVYpebble.o)
 .text.dict_write_end
                0x0000000000000000        0xc /Users/user/pebble-dev/PebbleSDK-2.2/Pebble/lib/libpebble.a(tmpZR3mVYpebble.o)
 .text.dict_write_int
                0x0000000000000000        0xc /Users/user/pebble-dev/PebbleSDK-2.2/Pebble/lib/libpebble.a(tmpZR3mVYpebble.o)
 .text.dict_write_int16
                0x0000000000000000        0xc /Users/user/pebble-dev/PebbleSDK-2.2/Pebble/lib/libpebble.a(tmpZR3mVYpebble.o)
 .text.dict_write_int32
                0x0000000000000000        0xc /Users/user/pebble-dev/PebbleSDK-2.2/Pebble/lib/libpebble.a(tmpZR3mVYpebble.o)
 .text.dict_write_int8
                0x0000000000000000        0xc /Users/user/pebble-dev/PebbleSDK-2.2/Pebble/lib/libpebble.a(tmpZR3mVYpebble.o)
 .text.dict_write_tuplet
                0x0000000000000000        0xc /Users/user/pebble-dev/PebbleSDK-2.2/Pebble/lib/libpebble.a(tmpZR3mVYpebble.o)
 .text.dict_write_uint16
                0x0000000000000000        0xc /Users/user/pebble-dev/PebbleSDK-2.2/Pebble/lib/libpebble.a(tmpZR3mVYpebble.o)
 .text.dict_write_uint8
                0x0000000000000000        0xc /Users/user/pebble-dev/PebbleSDK-2.2/Pebble/lib/libpebble.a(tmpZR3mVYpebble.o)
 .text.free     0x0000000000000000        0xc /Users/user/pebble-dev/PebbleSDK-2.2/Pebble/lib/libpebble.a(tmpZR3mVYpebble.o)
 .text.gbitmap_create_as_sub_bitmap
                0x0000000000000000        0xc /Users/user/pebble-dev/PebbleSDK-2.2/Pebble/lib/libpebble.a(tmpZR3mVYpebble.o)
 .text.gbitmap_create_with_data
                0x0000000000000000        0xc /Users/user/pebble-dev/PebbleSDK-2.2/Pebble/lib/libpebble.a(tmpZR3mVYpebble.o)
 .text.gmtime   0x0000000000000000        0xc /Users/user/pebble-dev/PebbleSDK-2.2/Pebble/lib/libpebble.a(tmpZR3mVYpebble.o)
 .text.gpath_create
                0x0000000000000000        0xc /Users/user/pebble-dev/PebbleSDK-2.2/Pebble/lib/libpebble.a(tmpZR3mVYpebble.o)
 .text.gpath_destroy
                0x0000000000000000        0xc /Users/user/pebble-dev/PebbleSDK-2.2/Pebble/lib/libpebble.a(tmpZR3mVYpebble.o)
 .text.gpath_draw_filled
                0x0000000000000000        0xc /Users/user/pebble-dev/PebbleSDK-2.2/Pebble/lib/libpebble.a(tmpZR3mVYpebble.o)
 .text.gpath_draw_outline
                0x0000000000000000        0xc /Users/user/pebble-dev/PebbleSDK-2.2/Pebble/lib/libpebble.a(tmpZR3mVYpebble.o)
 .text.gpath_move_to
                0x0000000000000000        0xc /Users/user/pebble-dev/PebbleSDK-2.2/Pebble/lib/libpebble.a(tmpZR3mVYpebble.o)
 .text.gpath_rotate_to
                0x0000000000000000        0xc /Users/user/pebble-dev/PebbleSDK-2.2/Pebble/lib/libpebble.a(tmpZR3mVYpebble.o)
 .text.gpoint_equal
                0x0000000000000000        0xc /Users/user/pebble-dev/PebbleSDK-2.2/Pebble/lib/libpebble.a(tmpZR3mVYpebble.o)
 .text.graphics_context_set_compositing_mode
                0x0000000000000000        0xc /Users/user/pebble-dev/PebbleSDK-2.2/Pebble/lib/libpebble.a(tmpZR3mVYpebble.o)
 .text.graphics_context_set_fill_color
                0x0000000000000000        0xc /Users/user/pebble-dev/PebbleSDK-2.2/Pebble/lib/libpebble.a(tmpZR3mVYpebble.o)
 .text.graphics_context_set_text_color
                0x0000000000000000        0xc /Users/user/pebble-dev/PebbleSDK-2.2/Pebble/lib/libpebble.a(tmpZR3mVYpebble.o)
 .text.graphics_draw_bitmap_in_rect
                0x0000000000000000        0xc /Users/user/pebble-dev/PebbleSDK-2.2/Pebble/lib/libpebble.a(tmpZR3mVYpebble.o)
 .text.graphics_draw_circle
                0x0000000000000000        0xc /Users/user/pebble-dev/PebbleSDK-2.2/Pebble/lib/libpebble.a(tmpZR3mVYpebble.o)
 .text.graphics_draw_pixel
                0x0000000000000000        0xc /Users/user/pebble-dev/PebbleSDK-2.2/Pebble/lib/libpebble.a(tmpZR3mVYpebble.o)
 .text.graphics_draw_rect
                0x0000000000000000        0xc /Users/user/pebble-dev/PebbleSDK-2.2/Pebble/lib/libpebble.a(tmpZR3mVYpebble.o)
 .text.graphics_draw_round_rect
                0x0000000000000000        0xc /Users/user/pebble-dev/PebbleSDK-2.2/Pebble/lib/libpebble.a(tmpZR3mVYpebble.o)
 .text.graphics_fill_circle
                0x0000000000000000        0xc /Users/user/pebble-dev/PebbleSDK-2.2/Pebble/lib/libpebble.a(tmpZR3mVYpebble.o)
 .text.graphics_fill_rect
                0x0000000000000000        0xc /Users/user/pebble-dev/PebbleSDK-2.2/Pebble/lib/libpebble.a(tmpZR3mVYpebble.o)
 .text.graphics_text_layout_get_max_used_size
                0x0000000000000000        0xc /Users/user/pebble-dev/PebbleSDK-2.2/Pebble/lib/libpebble.a(tmpZR3mVYpebble.o)
 .text.grect_align
                0x0000000000000000        0xc /Users/user/pebble-dev/PebbleSDK-2.2/Pebble/lib/libpebble.a(tmpZR3mVYpebble.o)
 .text.grect_center_point
                0x0000000000000000        0xc /Users/user/pebble-dev/PebbleSDK-2.2/Pebble/lib/libpebble.a(tmpZR3mVYpebble.o)
 .text.grect_clip
                0x0000000000000000        0xc /Users/user/pebble-dev/PebbleSDK-2.2/Pebble/lib/libpebble.a(tmpZR3mVYpebble.o)
 .text.grect_contains_point
                0x0000000000000000        0xc /Users/user/pebble-dev/PebbleSDK-2.2/Pebble/lib/libpebble.a(tmpZR3mVYpebble.o)
 .text.grect_crop
                0x0000000000000000        0xc /Users/user/pebble-dev/PebbleSDK-2.2/Pebble/lib/libpebble.a(tmpZR3mVYpebble.o)
 .text.grect_equal
                0x0000000000000000        0xc /Users/user/pebble-dev/PebbleSDK-2.2/Pebble/lib/libpebble.a(tmpZR3mVYpebble.o)
 .text.grect_is_empty
                0x0000000000000000        0xc /Users/user/pebble-dev/PebbleSDK-2.2/Pebble/lib/libpebble.a(tmpZR3mVYpebble.o)
 .text.grect_standardize
                0x0000000000000000        0xc /Users/user/pebble-dev/PebbleSDK-2.2/Pebble/lib/libpebble.a(tmpZR3mVYpebble.o)
 .text.gsize_equal
                0x0000000000000000        0xc /Users/user/pebble-dev/PebbleSDK-2.2/Pebble/lib/libpebble.a(tmpZR3mVYpebble.o)
 .text.inverter_layer_create
                0x0000000000000000        0xc /Users/user/pebble-dev/PebbleSDK-2.2/Pebble/lib/libpebble.a(tmpZR3mVYpebble.o)
 .text.inverter_layer_destroy
                0x0000000000000000        0xc /Users/user/pebble-dev/PebbleSDK-2.2/Pebble/lib/libpebble.a(tmpZR3mVYpebble.o)
 .text.inverter_layer_get_layer
                0x0000000000000000        0xc /Users/user/pebble-dev/PebbleSDK-2.2/Pebble/lib/libpebble.a(tmpZR3mVYpebble.o)
 .text.layer_create_with_data
                0x0000000000000000        0xc /Users/user/pebble-dev/PebbleSDK-2.2/Pebble/lib/libpebble.a(tmpZR3mVYpebble.o)
 .text.layer_get_bounds
                0x0000000000000000        0xc /Users/user/pebble-dev/PebbleSDK-2.2/Pebble/lib/libpebble.a(tmpZR3mVYpebble.o)
 .text.layer_get_clips
                0x0000000000000000        0xc /Users/user/pebble-dev/PebbleSDK-2.2/Pebble/lib/libpebble.a(tmpZR3mVYpebble.o)
 .text.layer_get_data
                0x0000000000000000        0xc /Users/user/pebble-dev/PebbleSDK-2.2/Pebble/lib/libpebble.a(tmpZR3mVYpebble.o)
 .text.layer_get_hidden
                0x0000000000000000        0xc /Users/user/pebble-dev/PebbleSDK-2.2/Pebble/lib/libpebble.a(tmpZR3mVYpebble.o)
 .text.layer_get_window
                0x0000000000000000        0xc /Users/user/pebble-dev/PebbleSDK-2.2/Pebble/lib/libpebble.a(tmpZR3mVYpebble.o)
 .text.layer_insert_above_sibling
                0x0000000000000000        0xc /Users/user/pebble-dev/PebbleSDK-2.2/Pebble/lib/libpebble.a(tmpZR3mVYpebble.o)
 .text.layer_insert_below_sibling
                0x0000000000000000        0xc /Users/user/pebble-dev/PebbleSDK-2.2/Pebble/lib/libpebble.a(tmpZR3mVYpebble.o)
 .text.layer_remove_child_layers
                0x0000000000000000        0xc /Users/user/pebble-dev/PebbleSDK-2.2/Pebble/lib/libpebble.a(tmpZR3mVYpebble.o)
 .text.layer_remove_from_parent
                0x0000000000000000        0xc /Users/user/pebble-dev/PebbleSDK-2.2/Pebble/lib/libpebble.a(tmpZR3mVYpebble.o)
 .text.layer_set_bounds
                0x0000000000000000        0xc /Users/user/pebble-dev/PebbleSDK-2.2/Pebble/lib/libpebble.a(tmpZR3mVYpebble.o)
 .text.layer_set_clips
                0x0000000000000000        0xc /Users/user/pebble-dev/PebbleSDK-2.2/Pebble/lib/libpebble.a(tmpZR3mVYpebble.o)
 .text.light_enable
                0x0000000000000000        0xc /Users/user/pebble-dev/PebbleSDK-2.2/Pebble/lib/libpebble.a(tmpZR3mVYpebble.o)
 .text.light_enable_interaction
                0x0000000000000000        0xc /Users/user/pebble-dev/PebbleSDK-2.2/Pebble/lib/libpebble.a(tmpZR3mVYpebble.o)
 .text.localtime
                0x0000000000000000        0xc /Users/user/pebble-dev/PebbleSDK-2.2/Pebble/lib/libpebble.a(tmpZR3mVYpebble.o)
 .text.malloc   0x0000000000000000        0xc /Users/user/pebble-dev/PebbleSDK-2.2/Pebble/lib/libpebble.a(tmpZR3mVYpebble.o)
 .text.memmove  0x0000000000000000        0xc /Users/user/pebble-dev/PebbleSDK-2.2/Pebble/lib/libpebble.a(tmpZR3mVYpebble.o)
 .text.menu_cell_basic_draw
                0x0000000000000000        0xc /Users/user/pebble-dev/PebbleSDK-2.2/Pebble/lib/libpebble.a(tmpZR3mVYpebble.o)
 .text.menu_cell_basic_header_draw
                0x0000000000000000        0xc /Users/user/pebble-dev/PebbleSDK-2.2/Pebble/lib/libpebble.a(tmpZR3mVYpebble.o)
 .text.menu_cell_title_draw
                0x0000000000000000        0xc /Users/user/pebble-dev/PebbleSDK-2.2/Pebble/lib/libpebble.a(tmpZR3mVYpebble.o)
 .text.menu_index_compare
                0x0000000000000000        0xc /Users/user/pebble-dev/PebbleSDK-2.2/Pebble/lib/libpebble.a(tmpZR3mVYpebble.o)
 .text.menu_layer_create
                0x0000000000000000        0xc /Users/user/pebble-dev/PebbleSDK-2.2/Pebble/lib/libpebble.a(tmpZR3mVYpebble.o)
 .text.menu_layer_destroy
                0x0000000000000000        0xc /Users/user/pebble-dev/PebbleSDK-2.2/Pebble/lib/libpebble.a(tmpZR3mVYpebble.o)
 .text.menu_layer_get_layer
                0x0000000000000000        0xc /Users/user/pebble-dev/PebbleSDK-2.2/Pebble/lib/libpebble.a(tmpZR3mVYpebble.o)
 .text.menu_layer_get_scroll_layer
                0x0000000000000000        0xc /Users/user/pebble-dev/PebbleSDK-2.2/Pebble/lib/libpebble.a(tmpZR3mVYpebble.o)
 .text.menu_layer_get_selected_index
                0x0000000000000000        0xc /Users/user/pebble-dev/PebbleSDK-2.2/Pebble/lib/libpebble.a(tmpZR3mVYpebble.o)
 .text.menu_layer_reload_data
                0x0000000000000000        0xc /Users/user/pebble-dev/PebbleSDK-2.2/Pebble/lib/libpebble.a(tmpZR3mVYpebble.o)
 .text.menu_layer_set_callbacks__deprecated
                0x0000000000000000        0xc /Users/user/pebble-dev/PebbleSDK-2.2/Pebble/lib/libpebble.a(tmpZR3mVYpebble.o)
 .text.menu_layer_set_click_config_onto_window
                0x0000000000000000        0xc /Users/user/pebble-dev/PebbleSDK-2.2/Pebble/lib/libpebble.a(tmpZR3mVYpebble.o)
 .text.menu_layer_set_selected_index
                0x0000000000000000        0xc /Users/user/pebble-dev/PebbleSDK-2.2/Pebble/lib/libpebble.a(tmpZR3mVYpebble.o)
 .text.menu_layer_set_selected_next
                0x0000000000000000        0xc /Users/user/pebble-dev/PebbleSDK-2.2/Pebble/lib/libpebble.a(tmpZR3mVYpebble.o)
 .text.number_window_create
                0x0000000000000000        0xc /Users/user/pebble-dev/PebbleSDK-2.2/Pebble/lib/libpebble.a(tmpZR3mVYpebble.o)
 .text.number_window_destroy
                0x0000000000000000        0xc /Users/user/pebble-dev/PebbleSDK-2.2/Pebble/lib/libpebble.a(tmpZR3mVYpebble.o)
 .text.number_window_get_value
                0x0000000000000000        0xc /Users/user/pebble-dev/PebbleSDK-2.2/Pebble/lib/libpebble.a(tmpZR3mVYpebble.o)
 .text.number_window_set_label
                0x0000000000000000        0xc /Users/user/pebble-dev/PebbleSDK-2.2/Pebble/lib/libpebble.a(tmpZR3mVYpebble.o)
 .text.number_window_set_max
                0x0000000000000000        0xc /Users/user/pebble-dev/PebbleSDK-2.2/Pebble/lib/libpebble.a(tmpZR3mVYpebble.o)
 .text.number_window_set_min
                0x0000000000000000        0xc /Users/user/pebble-dev/PebbleSDK-2.2/Pebble/lib/libpebble.a(tmpZR3mVYpebble.o)
 .text.number_window_set_step_size
                0x0000000000000000        0xc /Users/user/pebble-dev/PebbleSDK-2.2/Pebble/lib/libpebble.a(tmpZR3mVYpebble.o)
 .text.number_window_set_value
                0x0000000000000000        0xc /Users/user/pebble-dev/PebbleSDK-2.2/Pebble/lib/libpebble.a(tmpZR3mVYpebble.o)
 .text.persist_delete
                0x0000000000000000        0xc /Users/user/pebble-dev/PebbleSDK-2.2/Pebble/lib/libpebble.a(tmpZR3mVYpebble.o)
 .text.persist_exists
                0x0000000000000000        0xc /Users/user/pebble-dev/PebbleSDK-2.2/Pebble/lib/libpebble.a(tmpZR3mVYpebble.o)
 .text.persist_get_size
                0x0000000000000000        0xc /Users/user/pebble-dev/PebbleSDK-2.2/Pebble/lib/libpebble.a(tmpZR3mVYpebble.o)
 .text.persist_read_bool
                0x0000000000000000        0xc /Users/user/pebble-dev/PebbleSDK-2.2/Pebble/lib/libpebble.a(tmpZR3mVYpebble.o)
 .text.persist_read_data__deprecated
                0x0000000000000000        0xc /Users/user/pebble-dev/PebbleSDK-2.2/Pebble/lib/libpebble.a(tmpZR3mVYpebble.o)
 .text.persist_read_int
                0x0000000000000000        0xc /Users/user/pebble-dev/PebbleSDK-2.2/Pebble/lib/libpebble.a(tmpZR3mVYpebble.o)
 .text.persist_read_string__deprecated
                0x0000000000000000        0xc /Users/user/pebble-dev/PebbleSDK-2.2/Pebble/lib/libpebble.a(tmpZR3mVYpebble.o)
 .text.persist_write_bool
                0x0000000000000000        0xc /Users/user/pebble-dev/PebbleSDK-2.2/Pebble/lib/libpebble.a(tmpZR3mVYpebble.o)
 .text.persist_write_data__deprecated
                0x0000000000000000        0xc /Users/user/pebble-dev/PebbleSDK-2.2/Pebble/lib/libpebble.a(tmpZR3mVYpebble.o)
 .text.persist_write_int
                0x0000000000000000        0xc /Users/user/pebble-dev/PebbleSDK-2.2/Pebble/lib/libpebble.a(tmpZR3mVYpebble.o)
 .text.persist_write_string
                0x0000000000000000        0xc /Users/user/pebble-dev/PebbleSDK-2.2/Pebble/lib/libpebble.a(tmpZR3mVYpebble.o)
 .text.property_animation_create
                0x0000000000000000        0xc /Users/user/pebble-dev/PebbleSDK-2.2/Pebble/lib/libpebble.a(tmpZR3mVYpebble.o)
 .text.property_animation_update_gpoint
                0x0000000000000000        0xc /Users/user/pebble-dev/PebbleSDK-2.2/Pebble/lib/libpebble.a(tmpZR3mVYpebble.o)
 .text.property_animation_update_grect
                0x0000000000000000        0xc /Users/user/pebble-dev/PebbleSDK-2.2/Pebble/lib/libpebble.a(tmpZR3mVYpebble.o)
 .text.property_animation_update_int16
                0x0000000000000000        0xc /Users/user/pebble-dev/PebbleSDK-2.2/Pebble/lib/libpebble.a(tmpZR3mVYpebble.o)
 .text.rand     0x0000000000000000        0xc /Users/user/pebble-dev/PebbleSDK-2.2/Pebble/lib/libpebble.a(tmpZR3mVYpebble.o)
 .text.resource_load
                0x0000000000000000        0xc /Users/user/pebble-dev/PebbleSDK-2.2/Pebble/lib/libpebble.a(tmpZR3mVYpebble.o)
 .text.resource_load_byte_range
                0x0000000000000000        0xc /Users/user/pebble-dev/PebbleSDK-2.2/Pebble/lib/libpebble.a(tmpZR3mVYpebble.o)
 .text.resource_size
                0x0000000000000000        0xc /Users/user/pebble-dev/PebbleSDK-2.2/Pebble/lib/libpebble.a(tmpZR3mVYpebble.o)
 .text.rot_bitmap_layer_create
                0x0000000000000000        0xc /Users/user/pebble-dev/PebbleSDK-2.2/Pebble/lib/libpebble.a(tmpZR3mVYpebble.o)
 .text.rot_bitmap_layer_destroy
                0x0000000000000000        0xc /Users/user/pebble-dev/PebbleSDK-2.2/Pebble/lib/libpebble.a(tmpZR3mVYpebble.o)
 .text.rot_bitmap_layer_increment_angle
                0x0000000000000000        0xc /Users/user/pebble-dev/PebbleSDK-2.2/Pebble/lib/libpebble.a(tmpZR3mVYpebble.o)
 .text.rot_bitmap_layer_set_angle
                0x0000000000000000        0xc /Users/user/pebble-dev/PebbleSDK-2.2/Pebble/lib/libpebble.a(tmpZR3mVYpebble.o)
 .text.rot_bitmap_layer_set_corner_clip_color
                0x0000000000000000        0xc /Users/user/pebble-dev/PebbleSDK-2.2/Pebble/lib/libpebble.a(tmpZR3mVYpebble.o)
 .text.rot_bitmap_set_compositing_mode
                0x0000000000000000        0xc /Users/user/pebble-dev/PebbleSDK-2.2/Pebble/lib/libpebble.a(tmpZR3mVYpebble.o)
 .text.rot_bitmap_set_src_ic
                0x0000000000000000        0xc /Users/user/pebble-dev/PebbleSDK-2.2/Pebble/lib/libpebble.a(tmpZR3mVYpebble.o)
 .text.scroll_layer_get_content_offset
                0x0000000000000000        0xc /Users/user/pebble-dev/PebbleSDK-2.2/Pebble/lib/libpebble.a(tmpZR3mVYpebble.o)
 .text.scroll_layer_get_content_size
                0x0000000000000000        0xc /Users/user/pebble-dev/PebbleSDK-2.2/Pebble/lib/libpebble.a(tmpZR3mVYpebble.o)
 .text.scroll_layer_get_layer
                0x0000000000000000        0xc /Users/user/pebble-dev/PebbleSDK-2.2/Pebble/lib/libpebble.a(tmpZR3mVYpebble.o)
 .text.scroll_layer_get_shadow_hidden
                0x0000000000000000        0xc /Users/user/pebble-dev/PebbleSDK-2.2/Pebble/lib/libpebble.a(tmpZR3mVYpebble.o)
 .text.scroll_layer_scroll_down_click_handler
                0x0000000000000000        0xc /Users/user/pebble-dev/PebbleSDK-2.2/Pebble/lib/libpebble.a(tmpZR3mVYpebble.o)
 .text.scroll_layer_scroll_up_click_handler
                0x0000000000000000        0xc /Users/user/pebble-dev/PebbleSDK-2.2/Pebble/lib/libpebble.a(tmpZR3mVYpebble.o)
 .text.scroll_layer_set_callbacks
                0x0000000000000000        0xc /Users/user/pebble-dev/PebbleSDK-2.2/Pebble/lib/libpebble.a(tmpZR3mVYpebble.o)
 .text.scroll_layer_set_context
                0x0000000000000000        0xc /Users/user/pebble-dev/PebbleSDK-2.2/Pebble/lib/libpebble.a(tmpZR3mVYpebble.o)
 .text.scroll_layer_set_frame
                0x0000000000000000        0xc /Users/user/pebble-dev/PebbleSDK-2.2/Pebble/lib/libpebble.a(tmpZR3mVYpebble.o)
 .text.scroll_layer_set_shadow_hidden
                0x0000000000000000        0xc /Users/user/pebble-dev/PebbleSDK-2.2/Pebble/lib/libpebble.a(tmpZR3mVYpebble.o)
 .text.simple_menu_layer_create
                0x0000000000000000        0xc /Users/user/pebble-dev/PebbleSDK-2.2/Pebble/lib/libpebble.a(tmpZR3mVYpebble.o)
 .text.simple_menu_layer_destroy
                0x0000000000000000        0xc /Users/user/pebble-dev/PebbleSDK-2.2/Pebble/lib/libpebble.a(tmpZR3mVYpebble.o)
 .text.simple_menu_layer_get_layer
                0x0000000000000000        0xc /Users/user/pebble-dev/PebbleSDK-2.2/Pebble/lib/libpebble.a(tmpZR3mVYpebble.o)
 .text.simple_menu_layer_get_selected_index
                0x0000000000000000        0xc /Users/user/pebble-dev/PebbleSDK-2.2/Pebble/lib/libpebble.a(tmpZR3mVYpebble.o)
 .text.simple_menu_layer_set_selected_index
                0x0000000000000000        0xc /Users/user/pebble-dev/PebbleSDK-2.2/Pebble/lib/libpebble.a(tmpZR3mVYpebble.o)
 .text.sin_lookup
                0x0000000000000000        0xc /Users/user/pebble-dev/PebbleSDK-2.2/Pebble/lib/libpebble.a(tmpZR3mVYpebble.o)
 .text.srand    0x0000000000000000        0xc /Users/user/pebble-dev/PebbleSDK-2.2/Pebble/lib/libpebble.a(tmpZR3mVYpebble.o)
 .text.strcat   0x0000000000000000        0xc /Users/user/pebble-dev/PebbleSDK-2.2/Pebble/lib/libpebble.a(tmpZR3mVYpebble.o)
 .text.strcmp   0x0000000000000000        0xc /Users/user/pebble-dev/PebbleSDK-2.2/Pebble/lib/libpebble.a(tmpZR3mVYpebble.o)
 .text.strcpy   0x0000000000000000        0xc /Users/user/pebble-dev/PebbleSDK-2.2/Pebble/lib/libpebble.a(tmpZR3mVYpebble.o)
 .text.strftime
                0x0000000000000000        0xc /Users/user/pebble-dev/PebbleSDK-2.2/Pebble/lib/libpebble.a(tmpZR3mVYpebble.o)
 .text.strncat  0x0000000000000000        0xc /Users/user/pebble-dev/PebbleSDK-2.2/Pebble/lib/libpebble.a(tmpZR3mVYpebble.o)
 .text.strncmp  0x0000000000000000        0xc /Users/user/pebble-dev/PebbleSDK-2.2/Pebble/lib/libpebble.a(tmpZR3mVYpebble.o)
 .text.strncpy  0x0000000000000000        0xc /Users/user/pebble-dev/PebbleSDK-2.2/Pebble/lib/libpebble.a(tmpZR3mVYpebble.o)
 .text.text_layer_get_content_size
                0x0000000000000000        0xc /Users/user/pebble-dev/PebbleSDK-2.2/Pebble/lib/libpebble.a(tmpZR3mVYpebble.o)
 .text.text_layer_get_layer
                0x0000000000000000        0xc /Users/user/pebble-dev/PebbleSDK-2.2/Pebble/lib/libpebble.a(tmpZR3mVYpebble.o)
 .text.text_layer_get_text
                0x0000000000000000        0xc /Users/user/pebble-dev/PebbleSDK-2.2/Pebble/lib/libpebble.a(tmpZR3mVYpebble.o)
 .text.text_layer_set_overflow_mode
                0x0000000000000000        0xc /Users/user/pebble-dev/PebbleSDK-2.2/Pebble/lib/libpebble.a(tmpZR3mVYpebble.o)
 .text.text_layer_set_size
                0x0000000000000000        0xc /Users/user/pebble-dev/PebbleSDK-2.2/Pebble/lib/libpebble.a(tmpZR3mVYpebble.o)
 .text.tick_timer_service_subscribe
                0x0000000000000000        0xc /Users/user/pebble-dev/PebbleSDK-2.2/Pebble/lib/libpebble.a(tmpZR3mVYpebble.o)
 .text.tick_timer_service_unsubscribe
                0x0000000000000000        0xc /Users/user/pebble-dev/PebbleSDK-2.2/Pebble/lib/libpebble.a(tmpZR3mVYpebble.o)
 .text.time     0x0000000000000000        0xc /Users/user/pebble-dev/PebbleSDK-2.2/Pebble/lib/libpebble.a(tmpZR3mVYpebble.o)
 .text.vibes_cancel
                0x0000000000000000        0xc /Users/user/pebble-dev/PebbleSDK-2.2/Pebble/lib/libpebble.a(tmpZR3mVYpebble.o)
 .text.vibes_double_pulse
                0x0000000000000000        0xc /Users/user/pebble-dev/PebbleSDK-2.2/Pebble/lib/libpebble.a(tmpZR3mVYpebble.o)
 .text.vibes_enqueue_custom_pattern
                0x0000000000000000        0xc /Users/user/pebble-dev/PebbleSDK-2.2/Pebble/lib/libpebble.a(tmpZR3mVYpebble.o)
 .text.vibes_long_pulse
                0x0000000000000000        0xc /Users/user/pebble-dev/PebbleSDK-2.2/Pebble/lib/libpebble.a(tmpZR3mVYpebble.o)
 .text.vibes_short_pulse
                0x0000000000000000        0xc /Users/user/pebble-dev/PebbleSDK-2.2/Pebble/lib/libpebble.a(tmpZR3mVYpebble.o)
 .text.window_get_click_config_provider
                0x0000000000000000        0xc /Users/user/pebble-dev/PebbleSDK-2.2/Pebble/lib/libpebble.a(tmpZR3mVYpebble.o)
 .text.window_get_fullscreen
                0x0000000000000000        0xc /Users/user/pebble-dev/PebbleSDK-2.2/Pebble/lib/libpebble.a(tmpZR3mVYpebble.o)
 .text.window_is_loaded
                0x0000000000000000        0xc /Users/user/pebble-dev/PebbleSDK-2.2/Pebble/lib/libpebble.a(tmpZR3mVYpebble.o)
 .text.window_set_click_config_provider_with_context
                0x0000000000000000        0xc /Users/user/pebble-dev/PebbleSDK-2.2/Pebble/lib/libpebble.a(tmpZR3mVYpebble.o)
 .text.window_set_status_bar_icon
                0x0000000000000000        0xc /Users/user/pebble-dev/PebbleSDK-2.2/Pebble/lib/libpebble.a(tmpZR3mVYpebble.o)
 .text.window_stack_contains_window
                0x0000000000000000        0xc /Users/user/pebble-dev/PebbleSDK-2.2/Pebble/lib/libpebble.a(tmpZR3mVYpebble.o)
 .text.window_stack_get_top_window
                0x0000000000000000        0xc /Users/user/pebble-dev/PebbleSDK-2.2/Pebble/lib/libpebble.a(tmpZR3mVYpebble.o)
 .text.window_stack_pop
                0x0000000000000000        0xc /Users/user/pebble-dev/PebbleSDK-2.2/Pebble/lib/libpebble.a(tmpZR3mVYpebble.o)
 .text.window_stack_pop_all
                0x0000000000000000        0xc /Users/user/pebble-dev/PebbleSDK-2.2/Pebble/lib/libpebble.a(tmpZR3mVYpebble.o)
 .text.window_stack_remove
                0x0000000000000000        0xc /Users/user/pebble-dev/PebbleSDK-2.2/Pebble/lib/libpebble.a(tmpZR3mVYpebble.o)
 .text.app_focus_service_subscribe
                0x0000000000000000        0xc /Users/user/pebble-dev/PebbleSDK-2.2/Pebble/lib/libpebble.a(tmpZR3mVYpebble.o)
 .text.app_focus_service_unsubscribe
                0x0000000000000000        0xc /Users/user/pebble-dev/PebbleSDK-2.2/Pebble/lib/libpebble.a(tmpZR3mVYpebble.o)
 .text.window_get_user_data
                0x0000000000000000        0xc /Users/user/pebble-dev/PebbleSDK-2.2/Pebble/lib/libpebble.a(tmpZR3mVYpebble.o)
 .text.window_set_user_data
                0x0000000000000000        0xc /Users/user/pebble-dev/PebbleSDK-2.2/Pebble/lib/libpebble.a(tmpZR3mVYpebble.o)
 .text.app_message_get_context
                0x0000000000000000        0xc /Users/user/pebble-dev/PebbleSDK-2.2/Pebble/lib/libpebble.a(tmpZR3mVYpebble.o)
 .text.app_message_set_context
                0x0000000000000000        0xc /Users/user/pebble-dev/PebbleSDK-2.2/Pebble/lib/libpebble.a(tmpZR3mVYpebble.o)
 .text.window_multi_click_subscribe
                0x0000000000000000        0xc /Users/user/pebble-dev/PebbleSDK-2.2/Pebble/lib/libpebble.a(tmpZR3mVYpebble.o)
 .text.window_raw_click_subscribe
                0x0000000000000000        0xc /Users/user/pebble-dev/PebbleSDK-2.2/Pebble/lib/libpebble.a(tmpZR3mVYpebble.o)
 .text.window_set_click_context
                0x0000000000000000        0xc /Users/user/pebble-dev/PebbleSDK-2.2/Pebble/lib/libpebble.a(tmpZR3mVYpebble.o)
 .text.window_single_repeating_click_subscribe
                0x0000000000000000        0xc /Users/user/pebble-dev/PebbleSDK-2.2/Pebble/lib/libpebble.a(tmpZR3mVYpebble.o)
 .text.graphics_draw_text
                0x0000000000000000        0xc /Users/user/pebble-dev/PebbleSDK-2.2/Pebble/lib/libpebble.a(tmpZR3mVYpebble.o)
 .text.dict_serialize_tuplets_to_buffer
                0x0000000000000000        0xc /Users/user/pebble-dev/PebbleSDK-2.2/Pebble/lib/libpebble.a(tmpZR3mVYpebble.o)
 .text.persist_read_string
                0x0000000000000000        0xc /Users/user/pebble-dev/PebbleSDK-2.2/Pebble/lib/libpebble.a(tmpZR3mVYpebble.o)
 .text.dict_size
                0x0000000000000000        0xc /Users/user/pebble-dev/PebbleSDK-2.2/Pebble/lib/libpebble.a(tmpZR3mVYpebble.o)
 .text.graphics_text_layout_get_content_size
                0x0000000000000000        0xc /Users/user/pebble-dev/PebbleSDK-2.2/Pebble/lib/libpebble.a(tmpZR3mVYpebble.o)
 .text.simple_menu_layer_get_menu_layer
                0x0000000000000000        0xc /Users/user/pebble-dev/PebbleSDK-2.2/Pebble/lib/libpebble.a(tmpZR3mVYpebble.o)
 .text.accel_data_service_subscribe
                0x0000000000000000        0xc /Users/user/pebble-dev/PebbleSDK-2.2/Pebble/lib/libpebble.a(tmpZR3mVYpebble.o)
 .text.calloc   0x0000000000000000        0xc /Users/user/pebble-dev/PebbleSDK-2.2/Pebble/lib/libpebble.a(tmpZR3mVYpebble.o)
 .text.bitmap_layer_get_bitmap
                0x0000000000000000        0xc /Users/user/pebble-dev/PebbleSDK-2.2/Pebble/lib/libpebble.a(tmpZR3mVYpebble.o)
 .text.menu_layer_set_callbacks
                0x0000000000000000        0xc /Users/user/pebble-dev/PebbleSDK-2.2/Pebble/lib/libpebble.a(tmpZR3mVYpebble.o)
 .text.window_get_click_config_context
                0x0000000000000000        0xc /Users/user/pebble-dev/PebbleSDK-2.2/Pebble/lib/libpebble.a(tmpZR3mVYpebble.o)
 .bss           0x0000000000000000        0x0 /Users/user/pebble-dev/PebbleSDK-2.2/arm-cs-tools/bin/../lib/gcc/arm-none-eabi/4.7.2/thumb2/libgcc.a(_arm_addsubdf3.o)
 .bss           0x0000000000000000        0x0 /Users/user/pebble-dev/PebbleSDK-2.2/arm-cs-tools/bin/../lib/gcc/arm-none-eabi/4.7.2/thumb2/libgcc.a(_arm_muldivdf3.o)
 .bss           0x0000000000000000        0x0 /Users/user/pebble-dev/PebbleSDK-2.2/arm-cs-tools/bin/../lib/gcc/arm-none-eabi/4.7.2/thumb2/libgcc.a(_arm_cmpdf2.o)
 .bss           0x0000000000000000        0x0 /Users/user/pebble-dev/PebbleSDK-2.2/arm-cs-tools/bin/../lib/gcc/arm-none-eabi/4.7.2/thumb2/libgcc.a(_arm_fixdfsi.o)
 .bss           0x0000000000000000        0x0 /Users/user/pebble-dev/PebbleSDK-2.2/arm-cs-tools/bin/../lib/gcc/arm-none-eabi/4.7.2/thumb2/libgcc.a(_arm_fixunsdfsi.o)
 .text          0x0000000000000000        0x0 /Users/user/pebble-dev/PebbleSDK-2.2/arm-cs-tools/bin/../lib/gcc/arm-none-eabi/4.7.2/thumb2/crtend.o
 .bss           0x0000000000000000        0x0 /Users/user/pebble-dev/PebbleSDK-2.2/arm-cs-tools/bin/../lib/gcc/arm-none-eabi/4.7.2/thumb2/crtend.o
 .eh_frame      0x0000000000000000        0x4 /Users/user/pebble-dev/PebbleSDK-2.2/arm-cs-tools/bin/../lib/gcc/arm-none-eabi/4.7.2/thumb2/crtend.o
 .jcr           0x0000000000000000        0x4 /Users/user/pebble-dev/PebbleSDK-2.2/arm-cs-tools/bin/../lib/gcc/arm-none-eabi/4.7.2/thumb2/crtend.o
 .tm_clone_table
                0x0000000000000000        0x0 /Users/user/pebble-dev/PebbleSDK-2.2/arm-cs-tools/bin/../lib/gcc/arm-none-eabi/4.7.2/thumb2/crtend.o
 .text          0x0000000000000000        0x0 /Users/user/pebble-dev/PebbleSDK-2.2/arm-cs-tools/bin/../lib/gcc/arm-none-eabi/4.7.2/thumb2/crtn.o
 .bss           0x0000000000000000        0x0 /Users/user/pebble-dev/PebbleSDK-2.2/arm-cs-tools/bin/../lib/gcc/arm-none-eabi/4.7.2/thumb2/crtn.o
 .init          0x0000000000000000        0x8 /Users/user/pebble-dev/PebbleSDK-2.2/arm-cs-tools/bin/../lib/gcc/arm-none-eabi/4.7.2/thumb2/crtn.o
 .fini          0x0000000000000000        0x8 /Users/user/pebble-dev/PebbleSDK-2.2/arm-cs-tools/bin/../lib/gcc/arm-none-eabi/4.7.2/thumb2/crtn.o

Memory Configuration

Name             Origin             Length             Attributes
APP              0x0000000000000000 0x0000000000006000 xrw
*default*        0x0000000000000000 0xffffffffffffffff

Linker script and memory map

LOAD /Users/user/pebble-dev/PebbleSDK-2.2/arm-cs-tools/bin/../lib/gcc/arm-none-eabi/4.7.2/thumb2/crti.o
LOAD /Users/user/pebble-dev/PebbleSDK-2.2/arm-cs-tools/bin/../lib/gcc/arm-none-eabi/4.7.2/thumb2/crtbegin.o
LOAD src/common.c.12.o
LOAD src/laps.c.12.o
LOAD src/spritz.c.12.o
LOAD src/stopwatch.c.12.o
LOAD appinfo.auto.c.12.o
LOAD /Users/user/pebble-dev/PebbleSDK-2.2/Pebble/lib/libpebble.a
START GROUP
LOAD /Users/user/pebble-dev/PebbleSDK-2.2/arm-cs-tools/bin/../lib/gcc/arm-none-eabi/4.7.2/thumb2/libgcc.a
LOAD /Users/user/pebble-dev/PebbleSDK-2.2/arm-cs-tools/bin/../lib/gcc/arm-none-eabi/4.7.2/../../../../arm-none-eabi/lib/thumb2/libc.a
END GROUP
LOAD /Users/user/pebble-dev/PebbleSDK-2.2/arm-cs-tools/bin/../lib/gcc/arm-none-eabi/4.7.2/thumb2/crtend.o
LOAD /Users/user/pebble-dev/PebbleSDK-2.2/arm-cs-tools/bin/../lib/gcc/arm-none-eabi/4.7.2/thumb2/crtn.o

.header         0x0000000000000000       0x82
 *(.pbl_header)
 .pbl_header    0x0000000000000000       0x82 appinfo.auto.c.12.o
                0x0000000000000000                __pbl_app_info

.text           0x0000000000000084     0x2360
 *(.text)
 .text          0x0000000000000084       0x14 /Users/user/pebble-dev/PebbleSDK-2.2/Pebble/lib/libpebble.a(tmpZR3mVYpebble.o)
 .text          0x0000000000000098      0x370 /Users/user/pebble-dev/PebbleSDK-2.2/arm-cs-tools/bin/../lib/gcc/arm-none-eabi/4.7.2/thumb2/libgcc.a(_arm_addsubdf3.o)
                0x0000000000000098                __aeabi_drsub
                0x00000000000000a0                __subdf3
                0x00000000000000a0                __aeabi_dsub
                0x00000000000000a4                __aeabi_dadd
                0x00000000000000a4                __adddf3
                0x000000000000031c                __aeabi_ui2d
                0x000000000000031c                __floatunsidf
                0x000000000000033c                __floatsidf
                0x000000000000033c                __aeabi_i2d
                0x0000000000000360                __extendsfdf2
                0x0000000000000360                __aeabi_f2d
                0x000000000000039c                __aeabi_ul2d
                0x000000000000039c                __floatundidf
                0x00000000000003ac                __aeabi_l2d
                0x00000000000003ac                __floatdidf
 .text          0x0000000000000408      0x424 /Users/user/pebble-dev/PebbleSDK-2.2/arm-cs-tools/bin/../lib/gcc/arm-none-eabi/4.7.2/thumb2/libgcc.a(_arm_muldivdf3.o)
                0x0000000000000408                __aeabi_dmul
                0x0000000000000408                __muldf3
                0x000000000000065c                __aeabi_ddiv
                0x000000000000065c                __divdf3
 .text          0x000000000000082c      0x110 /Users/user/pebble-dev/PebbleSDK-2.2/arm-cs-tools/bin/../lib/gcc/arm-none-eabi/4.7.2/thumb2/libgcc.a(_arm_cmpdf2.o)
                0x000000000000082c                __gtdf2
                0x000000000000082c                __gedf2
                0x0000000000000834                __ltdf2
                0x0000000000000834                __ledf2
                0x000000000000083c                __eqdf2
                0x000000000000083c                __nedf2
                0x000000000000083c                __cmpdf2
                0x00000000000008b8                __aeabi_cdrcmple
                0x00000000000008c8                __aeabi_cdcmple
                0x00000000000008c8                __aeabi_cdcmpeq
                0x00000000000008d8                __aeabi_dcmpeq
                0x00000000000008ec                __aeabi_dcmplt
                0x0000000000000900                __aeabi_dcmple
                0x0000000000000914                __aeabi_dcmpge
                0x0000000000000928                __aeabi_dcmpgt
 .text          0x000000000000093c       0x50 /Users/user/pebble-dev/PebbleSDK-2.2/arm-cs-tools/bin/../lib/gcc/arm-none-eabi/4.7.2/thumb2/libgcc.a(_arm_fixdfsi.o)
                0x000000000000093c                __fixdfsi
                0x000000000000093c                __aeabi_d2iz
 .text          0x000000000000098c       0x40 /Users/user/pebble-dev/PebbleSDK-2.2/arm-cs-tools/bin/../lib/gcc/arm-none-eabi/4.7.2/thumb2/libgcc.a(_arm_fixunsdfsi.o)
                0x000000000000098c                __fixunsdfsi
                0x000000000000098c                __aeabi_d2uiz
 *(.text.*)
 .text.format_lap
                0x00000000000009cc       0x64 src/common.c.12.o
                0x00000000000009cc                format_lap
 .text.float_time_ms
                0x0000000000000a30       0x3c src/common.c.12.o
                0x0000000000000a30                float_time_ms
 .text.handle_appear
                0x0000000000000a6c       0x20 src/laps.c.12.o
                0x0000000000000a6c                handle_appear
 .text.init_lap_window
                0x0000000000000a8c      0x1d0 src/laps.c.12.o
                0x0000000000000a8c                init_lap_window
 .text.deinit_lap_window
                0x0000000000000c5c       0x54 src/laps.c.12.o
                0x0000000000000c5c                deinit_lap_window
 .text.show_laps
                0x0000000000000cb0       0x10 src/laps.c.12.o
                0x0000000000000cb0                show_laps
 .text.store_lap_time
                0x0000000000000cc0      0x158 src/laps.c.12.o
                0x0000000000000cc0                store_lap_time
 .text.clear_stored_laps
                0x0000000000000e18       0x5c src/laps.c.12.o
                0x0000000000000e18                clear_stored_laps
 .text.persist_laps
                0x0000000000000e74       0x64 src/laps.c.12.o
                0x0000000000000e74                persist_laps
 .text.restore_laps
                0x0000000000000ed8       0x78 src/laps.c.12.o
                0x0000000000000ed8                restore_laps
 .text.reset_spritz_handler
                0x0000000000000f50       0x10 src/spritz.c.12.o
                0x0000000000000f50                reset_spritz_handler
 .text.config_prov
                0x0000000000000f60       0x24 src/spritz.c.12.o
                0x0000000000000f60                config_prov
 .text.init_spritz_window
                0x0000000000000f84       0xe4 src/spritz.c.12.o
                0x0000000000000f84                init_spritz_window
 .text.deinit_spritz_window
                0x0000000000001068       0x48 src/spritz.c.12.o
                0x0000000000001068                deinit_spritz_window
 .text.show_spritz
                0x00000000000010b0       0x10 src/spritz.c.12.o
                0x00000000000010b0                show_spritz
 .text.find_pivot
                0x00000000000010c0       0x24 src/spritz.c.12.o
                0x00000000000010c0                find_pivot
 .text.toggle_spritz_handler
                0x00000000000010e4       0xb0 src/spritz.c.12.o
                0x00000000000010e4                toggle_spritz_handler
 .text.config_provider
                0x0000000000001194       0x58 src/stopwatch.c.12.o
                0x0000000000001194                config_provider
 .text.handle_display_spritz
                0x00000000000011ec        0x4 src/stopwatch.c.12.o
                0x00000000000011ec                handle_display_spritz
 .text.handle_display_lap_times
                0x00000000000011f0        0x4 src/stopwatch.c.12.o
                0x00000000000011f0                handle_display_lap_times
 .text.animation_stopped
                0x00000000000011f4       0x18 src/stopwatch.c.12.o
                0x00000000000011f4                animation_stopped
 .text.in_dropped_handler
                0x000000000000120c       0x1c src/stopwatch.c.12.o
                0x000000000000120c                in_dropped_handler
 .text.sync_error_callback
                0x0000000000001228       0x20 src/stopwatch.c.12.o
 .text.out_failed_handler
                0x0000000000001248       0x1c src/stopwatch.c.12.o
 .text.out_sent_handler
                0x0000000000001264       0x1c src/stopwatch.c.12.o
 .text.in_received_handler
                0x0000000000001280       0x44 src/stopwatch.c.12.o
                0x0000000000001280                in_received_handler
 .text.draw_line
                0x00000000000012c4       0x50 src/stopwatch.c.12.o
                0x00000000000012c4                draw_line
 .text.sync_tuple_changed_callback
                0x0000000000001314       0x14 src/stopwatch.c.12.o
 .text.handle_deinit
                0x0000000000001328      0x184 src/stopwatch.c.12.o
                0x0000000000001328                handle_deinit
 .text.stop_stopwatch
                0x00000000000014ac       0x34 src/stopwatch.c.12.o
                0x00000000000014ac                stop_stopwatch
 .text.start_stopwatch
                0x00000000000014e0       0xac src/stopwatch.c.12.o
                0x00000000000014e0                start_stopwatch
 .text.toggle_stopwatch_handler
                0x000000000000158c       0x14 src/stopwatch.c.12.o
                0x000000000000158c                toggle_stopwatch_handler
 .text.update_stopwatch
                0x00000000000015a0      0x100 src/stopwatch.c.12.o
                0x00000000000015a0                update_stopwatch
 .text.handle_timer
                0x00000000000016a0       0x50 src/stopwatch.c.12.o
                0x00000000000016a0                handle_timer
 .text.handle_init
                0x00000000000016f0      0x3c4 src/stopwatch.c.12.o
                0x00000000000016f0                handle_init
 .text.shift_lap_layer
                0x0000000000001ab4       0x70 src/stopwatch.c.12.o
                0x0000000000001ab4                shift_lap_layer
 .text.reset_stopwatch_handler
                0x0000000000001b24       0xc4 src/stopwatch.c.12.o
                0x0000000000001b24                reset_stopwatch_handler
 .text.save_lap_time
                0x0000000000001be8      0x198 src/stopwatch.c.12.o
                0x0000000000001be8                save_lap_time
 .text.lap_time_handler
                0x0000000000001d80       0x80 src/stopwatch.c.12.o
                0x0000000000001d80                lap_time_handler
 .text.lap_restored
                0x0000000000001e00        0x6 src/stopwatch.c.12.o
                0x0000000000001e00                lap_restored
 .text.startup.main
                0x0000000000001e06       0x12 src/stopwatch.c.12.o
                0x0000000000001e06                main
 .text.animation_schedule
                0x0000000000001e18        0xc /Users/user/pebble-dev/PebbleSDK-2.2/Pebble/lib/libpebble.a(tmpZR3mVYpebble.o)
                0x0000000000001e18                animation_schedule
 .text.animation_set_curve
                0x0000000000001e24        0xc /Users/user/pebble-dev/PebbleSDK-2.2/Pebble/lib/libpebble.a(tmpZR3mVYpebble.o)
                0x0000000000001e24                animation_set_curve
 .text.animation_set_delay
                0x0000000000001e30        0xc /Users/user/pebble-dev/PebbleSDK-2.2/Pebble/lib/libpebble.a(tmpZR3mVYpebble.o)
                0x0000000000001e30                animation_set_delay
 .text.animation_set_duration
                0x0000000000001e3c        0xc /Users/user/pebble-dev/PebbleSDK-2.2/Pebble/lib/libpebble.a(tmpZR3mVYpebble.o)
                0x0000000000001e3c                animation_set_duration
 .text.animation_set_handlers
                0x0000000000001e48        0xc /Users/user/pebble-dev/PebbleSDK-2.2/Pebble/lib/libpebble.a(tmpZR3mVYpebble.o)
                0x0000000000001e48                animation_set_handlers
 .text.app_comm_set_sniff_interval
                0x0000000000001e54        0xc /Users/user/pebble-dev/PebbleSDK-2.2/Pebble/lib/libpebble.a(tmpZR3mVYpebble.o)
                0x0000000000001e54                app_comm_set_sniff_interval
 .text.app_event_loop
                0x0000000000001e60        0xc /Users/user/pebble-dev/PebbleSDK-2.2/Pebble/lib/libpebble.a(tmpZR3mVYpebble.o)
                0x0000000000001e60                app_event_loop
 .text.app_log  0x0000000000001e6c        0xc /Users/user/pebble-dev/PebbleSDK-2.2/Pebble/lib/libpebble.a(tmpZR3mVYpebble.o)
                0x0000000000001e6c                app_log
 .text.app_message_open
                0x0000000000001e78        0xc /Users/user/pebble-dev/PebbleSDK-2.2/Pebble/lib/libpebble.a(tmpZR3mVYpebble.o)
                0x0000000000001e78                app_message_open
 .text.app_sync_deinit
                0x0000000000001e84        0xc /Users/user/pebble-dev/PebbleSDK-2.2/Pebble/lib/libpebble.a(tmpZR3mVYpebble.o)
                0x0000000000001e84                app_sync_deinit
 .text.app_sync_init
                0x0000000000001e90        0xc /Users/user/pebble-dev/PebbleSDK-2.2/Pebble/lib/libpebble.a(tmpZR3mVYpebble.o)
                0x0000000000001e90                app_sync_init
 .text.app_timer_cancel
                0x0000000000001e9c        0xc /Users/user/pebble-dev/PebbleSDK-2.2/Pebble/lib/libpebble.a(tmpZR3mVYpebble.o)
                0x0000000000001e9c                app_timer_cancel
 .text.app_timer_register
                0x0000000000001ea8        0xc /Users/user/pebble-dev/PebbleSDK-2.2/Pebble/lib/libpebble.a(tmpZR3mVYpebble.o)
                0x0000000000001ea8                app_timer_register
 .text.bitmap_layer_create
                0x0000000000001eb4        0xc /Users/user/pebble-dev/PebbleSDK-2.2/Pebble/lib/libpebble.a(tmpZR3mVYpebble.o)
                0x0000000000001eb4                bitmap_layer_create
 .text.bitmap_layer_destroy
                0x0000000000001ec0        0xc /Users/user/pebble-dev/PebbleSDK-2.2/Pebble/lib/libpebble.a(tmpZR3mVYpebble.o)
                0x0000000000001ec0                bitmap_layer_destroy
 .text.bitmap_layer_set_bitmap
                0x0000000000001ecc        0xc /Users/user/pebble-dev/PebbleSDK-2.2/Pebble/lib/libpebble.a(tmpZR3mVYpebble.o)
                0x0000000000001ecc                bitmap_layer_set_bitmap
 .text.data_logging_create
                0x0000000000001ed8        0xc /Users/user/pebble-dev/PebbleSDK-2.2/Pebble/lib/libpebble.a(tmpZR3mVYpebble.o)
                0x0000000000001ed8                data_logging_create
 .text.data_logging_finish
                0x0000000000001ee4        0xc /Users/user/pebble-dev/PebbleSDK-2.2/Pebble/lib/libpebble.a(tmpZR3mVYpebble.o)
                0x0000000000001ee4                data_logging_finish
 .text.data_logging_log
                0x0000000000001ef0        0xc /Users/user/pebble-dev/PebbleSDK-2.2/Pebble/lib/libpebble.a(tmpZR3mVYpebble.o)
                0x0000000000001ef0                data_logging_log
 .text.dict_find
                0x0000000000001efc        0xc /Users/user/pebble-dev/PebbleSDK-2.2/Pebble/lib/libpebble.a(tmpZR3mVYpebble.o)
                0x0000000000001efc                dict_find
 .text.dict_write_uint32
                0x0000000000001f08        0xc /Users/user/pebble-dev/PebbleSDK-2.2/Pebble/lib/libpebble.a(tmpZR3mVYpebble.o)
                0x0000000000001f08                dict_write_uint32
 .text.fonts_get_system_font
                0x0000000000001f14        0xc /Users/user/pebble-dev/PebbleSDK-2.2/Pebble/lib/libpebble.a(tmpZR3mVYpebble.o)
                0x0000000000001f14                fonts_get_system_font
 .text.fonts_load_custom_font
                0x0000000000001f20        0xc /Users/user/pebble-dev/PebbleSDK-2.2/Pebble/lib/libpebble.a(tmpZR3mVYpebble.o)
                0x0000000000001f20                fonts_load_custom_font
 .text.fonts_unload_custom_font
                0x0000000000001f2c        0xc /Users/user/pebble-dev/PebbleSDK-2.2/Pebble/lib/libpebble.a(tmpZR3mVYpebble.o)
                0x0000000000001f2c                fonts_unload_custom_font
 .text.gbitmap_create_with_resource
                0x0000000000001f38        0xc /Users/user/pebble-dev/PebbleSDK-2.2/Pebble/lib/libpebble.a(tmpZR3mVYpebble.o)
                0x0000000000001f38                gbitmap_create_with_resource
 .text.gbitmap_destroy
                0x0000000000001f44        0xc /Users/user/pebble-dev/PebbleSDK-2.2/Pebble/lib/libpebble.a(tmpZR3mVYpebble.o)
                0x0000000000001f44                gbitmap_destroy
 .text.graphics_context_set_stroke_color
                0x0000000000001f50        0xc /Users/user/pebble-dev/PebbleSDK-2.2/Pebble/lib/libpebble.a(tmpZR3mVYpebble.o)
                0x0000000000001f50                graphics_context_set_stroke_color
 .text.graphics_draw_line
                0x0000000000001f5c        0xc /Users/user/pebble-dev/PebbleSDK-2.2/Pebble/lib/libpebble.a(tmpZR3mVYpebble.o)
                0x0000000000001f5c                graphics_draw_line
 .text.layer_add_child
                0x0000000000001f68        0xc /Users/user/pebble-dev/PebbleSDK-2.2/Pebble/lib/libpebble.a(tmpZR3mVYpebble.o)
                0x0000000000001f68                layer_add_child
 .text.layer_create
                0x0000000000001f74        0xc /Users/user/pebble-dev/PebbleSDK-2.2/Pebble/lib/libpebble.a(tmpZR3mVYpebble.o)
                0x0000000000001f74                layer_create
 .text.layer_destroy
                0x0000000000001f80        0xc /Users/user/pebble-dev/PebbleSDK-2.2/Pebble/lib/libpebble.a(tmpZR3mVYpebble.o)
                0x0000000000001f80                layer_destroy
 .text.layer_get_frame
                0x0000000000001f8c        0xc /Users/user/pebble-dev/PebbleSDK-2.2/Pebble/lib/libpebble.a(tmpZR3mVYpebble.o)
                0x0000000000001f8c                layer_get_frame
 .text.layer_mark_dirty
                0x0000000000001f98        0xc /Users/user/pebble-dev/PebbleSDK-2.2/Pebble/lib/libpebble.a(tmpZR3mVYpebble.o)
                0x0000000000001f98                layer_mark_dirty
 .text.layer_set_frame
                0x0000000000001fa4        0xc /Users/user/pebble-dev/PebbleSDK-2.2/Pebble/lib/libpebble.a(tmpZR3mVYpebble.o)
                0x0000000000001fa4                layer_set_frame
 .text.layer_set_hidden
                0x0000000000001fb0        0xc /Users/user/pebble-dev/PebbleSDK-2.2/Pebble/lib/libpebble.a(tmpZR3mVYpebble.o)
                0x0000000000001fb0                layer_set_hidden
 .text.layer_set_update_proc
                0x0000000000001fbc        0xc /Users/user/pebble-dev/PebbleSDK-2.2/Pebble/lib/libpebble.a(tmpZR3mVYpebble.o)
                0x0000000000001fbc                layer_set_update_proc
 .text.memcpy   0x0000000000001fc8        0xc /Users/user/pebble-dev/PebbleSDK-2.2/Pebble/lib/libpebble.a(tmpZR3mVYpebble.o)
                0x0000000000001fc8                memcpy
 .text.memset   0x0000000000001fd4        0xc /Users/user/pebble-dev/PebbleSDK-2.2/Pebble/lib/libpebble.a(tmpZR3mVYpebble.o)
                0x0000000000001fd4                memset
 .text.property_animation_create_layer_frame
                0x0000000000001fe0        0xc /Users/user/pebble-dev/PebbleSDK-2.2/Pebble/lib/libpebble.a(tmpZR3mVYpebble.o)
                0x0000000000001fe0                property_animation_create_layer_frame
 .text.property_animation_destroy
                0x0000000000001fec        0xc /Users/user/pebble-dev/PebbleSDK-2.2/Pebble/lib/libpebble.a(tmpZR3mVYpebble.o)
                0x0000000000001fec                property_animation_destroy
 .text.psleep   0x0000000000001ff8        0xc /Users/user/pebble-dev/PebbleSDK-2.2/Pebble/lib/libpebble.a(tmpZR3mVYpebble.o)
                0x0000000000001ff8                psleep
 .text.resource_get_handle
                0x0000000000002004        0xc /Users/user/pebble-dev/PebbleSDK-2.2/Pebble/lib/libpebble.a(tmpZR3mVYpebble.o)
                0x0000000000002004                resource_get_handle
 .text.scroll_layer_add_child
                0x0000000000002010        0xc /Users/user/pebble-dev/PebbleSDK-2.2/Pebble/lib/libpebble.a(tmpZR3mVYpebble.o)
                0x0000000000002010                scroll_layer_add_child
 .text.scroll_layer_create
                0x000000000000201c        0xc /Users/user/pebble-dev/PebbleSDK-2.2/Pebble/lib/libpebble.a(tmpZR3mVYpebble.o)
                0x000000000000201c                scroll_layer_create
 .text.scroll_layer_destroy
                0x0000000000002028        0xc /Users/user/pebble-dev/PebbleSDK-2.2/Pebble/lib/libpebble.a(tmpZR3mVYpebble.o)
                0x0000000000002028                scroll_layer_destroy
 .text.scroll_layer_set_click_config_onto_window
                0x0000000000002034        0xc /Users/user/pebble-dev/PebbleSDK-2.2/Pebble/lib/libpebble.a(tmpZR3mVYpebble.o)
                0x0000000000002034                scroll_layer_set_click_config_onto_window
 .text.scroll_layer_set_content_offset
                0x0000000000002040        0xc /Users/user/pebble-dev/PebbleSDK-2.2/Pebble/lib/libpebble.a(tmpZR3mVYpebble.o)
                0x0000000000002040                scroll_layer_set_content_offset
 .text.scroll_layer_set_content_size
                0x000000000000204c        0xc /Users/user/pebble-dev/PebbleSDK-2.2/Pebble/lib/libpebble.a(tmpZR3mVYpebble.o)
                0x000000000000204c                scroll_layer_set_content_size
 .text.snprintf
                0x0000000000002058        0xc /Users/user/pebble-dev/PebbleSDK-2.2/Pebble/lib/libpebble.a(tmpZR3mVYpebble.o)
                0x0000000000002058                snprintf
 .text.strlen   0x0000000000002064        0xc /Users/user/pebble-dev/PebbleSDK-2.2/Pebble/lib/libpebble.a(tmpZR3mVYpebble.o)
                0x0000000000002064                strlen
 .text.text_layer_create
                0x0000000000002070        0xc /Users/user/pebble-dev/PebbleSDK-2.2/Pebble/lib/libpebble.a(tmpZR3mVYpebble.o)
                0x0000000000002070                text_layer_create
 .text.text_layer_destroy
                0x000000000000207c        0xc /Users/user/pebble-dev/PebbleSDK-2.2/Pebble/lib/libpebble.a(tmpZR3mVYpebble.o)
                0x000000000000207c                text_layer_destroy
 .text.text_layer_set_background_color
                0x0000000000002088        0xc /Users/user/pebble-dev/PebbleSDK-2.2/Pebble/lib/libpebble.a(tmpZR3mVYpebble.o)
                0x0000000000002088                text_layer_set_background_color
 .text.text_layer_set_font
                0x0000000000002094        0xc /Users/user/pebble-dev/PebbleSDK-2.2/Pebble/lib/libpebble.a(tmpZR3mVYpebble.o)
                0x0000000000002094                text_layer_set_font
 .text.text_layer_set_text
                0x00000000000020a0        0xc /Users/user/pebble-dev/PebbleSDK-2.2/Pebble/lib/libpebble.a(tmpZR3mVYpebble.o)
                0x00000000000020a0                text_layer_set_text
 .text.text_layer_set_text_alignment
                0x00000000000020ac        0xc /Users/user/pebble-dev/PebbleSDK-2.2/Pebble/lib/libpebble.a(tmpZR3mVYpebble.o)
                0x00000000000020ac                text_layer_set_text_alignment
 .text.text_layer_set_text_color
                0x00000000000020b8        0xc /Users/user/pebble-dev/PebbleSDK-2.2/Pebble/lib/libpebble.a(tmpZR3mVYpebble.o)
                0x00000000000020b8                text_layer_set_text_color
 .text.time_ms  0x00000000000020c4        0xc /Users/user/pebble-dev/PebbleSDK-2.2/Pebble/lib/libpebble.a(tmpZR3mVYpebble.o)
                0x00000000000020c4                time_ms
 .text.window_create
                0x00000000000020d0        0xc /Users/user/pebble-dev/PebbleSDK-2.2/Pebble/lib/libpebble.a(tmpZR3mVYpebble.o)
                0x00000000000020d0                window_create
 .text.window_destroy
                0x00000000000020dc        0xc /Users/user/pebble-dev/PebbleSDK-2.2/Pebble/lib/libpebble.a(tmpZR3mVYpebble.o)
                0x00000000000020dc                window_destroy
 .text.window_get_root_layer
                0x00000000000020e8        0xc /Users/user/pebble-dev/PebbleSDK-2.2/Pebble/lib/libpebble.a(tmpZR3mVYpebble.o)
                0x00000000000020e8                window_get_root_layer
 .text.window_set_background_color
                0x00000000000020f4        0xc /Users/user/pebble-dev/PebbleSDK-2.2/Pebble/lib/libpebble.a(tmpZR3mVYpebble.o)
                0x00000000000020f4                window_set_background_color
 .text.window_set_click_config_provider
                0x0000000000002100        0xc /Users/user/pebble-dev/PebbleSDK-2.2/Pebble/lib/libpebble.a(tmpZR3mVYpebble.o)
                0x0000000000002100                window_set_click_config_provider
 .text.window_set_fullscreen
                0x000000000000210c        0xc /Users/user/pebble-dev/PebbleSDK-2.2/Pebble/lib/libpebble.a(tmpZR3mVYpebble.o)
                0x000000000000210c                window_set_fullscreen
 .text.window_set_window_handlers
                0x0000000000002118        0xc /Users/user/pebble-dev/PebbleSDK-2.2/Pebble/lib/libpebble.a(tmpZR3mVYpebble.o)
                0x0000000000002118                window_set_window_handlers
 .text.window_stack_push
                0x0000000000002124        0xc /Users/user/pebble-dev/PebbleSDK-2.2/Pebble/lib/libpebble.a(tmpZR3mVYpebble.o)
                0x0000000000002124                window_stack_push
 .text.app_message_inbox_size_maximum
                0x0000000000002130        0xc /Users/user/pebble-dev/PebbleSDK-2.2/Pebble/lib/libpebble.a(tmpZR3mVYpebble.o)
                0x0000000000002130                app_message_inbox_size_maximum
 .text.app_message_outbox_begin
                0x000000000000213c        0xc /Users/user/pebble-dev/PebbleSDK-2.2/Pebble/lib/libpebble.a(tmpZR3mVYpebble.o)
                0x000000000000213c                app_message_outbox_begin
 .text.app_message_outbox_send
                0x0000000000002148        0xc /Users/user/pebble-dev/PebbleSDK-2.2/Pebble/lib/libpebble.a(tmpZR3mVYpebble.o)
                0x0000000000002148                app_message_outbox_send
 .text.app_message_outbox_size_maximum
                0x0000000000002154        0xc /Users/user/pebble-dev/PebbleSDK-2.2/Pebble/lib/libpebble.a(tmpZR3mVYpebble.o)
                0x0000000000002154                app_message_outbox_size_maximum
 .text.app_message_register_inbox_dropped
                0x0000000000002160        0xc /Users/user/pebble-dev/PebbleSDK-2.2/Pebble/lib/libpebble.a(tmpZR3mVYpebble.o)
                0x0000000000002160                app_message_register_inbox_dropped
 .text.app_message_register_inbox_received
                0x000000000000216c        0xc /Users/user/pebble-dev/PebbleSDK-2.2/Pebble/lib/libpebble.a(tmpZR3mVYpebble.o)
                0x000000000000216c                app_message_register_inbox_received
 .text.app_message_register_outbox_failed
                0x0000000000002178        0xc /Users/user/pebble-dev/PebbleSDK-2.2/Pebble/lib/libpebble.a(tmpZR3mVYpebble.o)
                0x0000000000002178                app_message_register_outbox_failed
 .text.app_message_register_outbox_sent
                0x0000000000002184        0xc /Users/user/pebble-dev/PebbleSDK-2.2/Pebble/lib/libpebble.a(tmpZR3mVYpebble.o)
                0x0000000000002184                app_message_register_outbox_sent
 .text.window_long_click_subscribe
                0x0000000000002190        0xc /Users/user/pebble-dev/PebbleSDK-2.2/Pebble/lib/libpebble.a(tmpZR3mVYpebble.o)
                0x0000000000002190                window_long_click_subscribe
 .text.window_single_click_subscribe
                0x000000000000219c        0xc /Users/user/pebble-dev/PebbleSDK-2.2/Pebble/lib/libpebble.a(tmpZR3mVYpebble.o)
                0x000000000000219c                window_single_click_subscribe
 .text.persist_read_data
                0x00000000000021a8        0xc /Users/user/pebble-dev/PebbleSDK-2.2/Pebble/lib/libpebble.a(tmpZR3mVYpebble.o)
                0x00000000000021a8                persist_read_data
 .text.persist_write_data
                0x00000000000021b4        0xc /Users/user/pebble-dev/PebbleSDK-2.2/Pebble/lib/libpebble.a(tmpZR3mVYpebble.o)
                0x00000000000021b4                persist_write_data
 *(.rodata)
 .rodata        0x00000000000021c0       0x10 src/laps.c.12.o
 .rodata        0x00000000000021d0       0x44 src/stopwatch.c.12.o
 *(.rodata*)
 .rodata.str1.1
                0x0000000000000000        0x0 src/common.c.12.o
                                         0x12 (size before relaxing)
 .rodata.str1.1
                0x0000000000002214       0x9a src/laps.c.12.o
 .rodata.str1.1
                0x00000000000022ae       0x1d src/spritz.c.12.o
 .rodata.str1.1
                0x00000000000022cb      0x119 src/stopwatch.c.12.o
                                        0x123 (size before relaxing)

.glue_7         0x00000000000023e4        0x0
 .glue_7        0x0000000000000000        0x0 linker stubs

.glue_7t        0x00000000000023e4        0x0
 .glue_7t       0x0000000000000000        0x0 linker stubs

.vfp11_veneer   0x00000000000023e4        0x0
 .vfp11_veneer  0x0000000000000000        0x0 linker stubs

.v4_bx          0x00000000000023e4        0x0
 .v4_bx         0x0000000000000000        0x0 linker stubs

.iplt           0x00000000000023e4        0x0
 .iplt          0x0000000000000000        0x0 /Users/user/pebble-dev/PebbleSDK-2.2/arm-cs-tools/bin/../lib/gcc/arm-none-eabi/4.7.2/thumb2/crtbegin.o

.rel.dyn        0x00000000000023e4        0x0
 .rel.iplt      0x0000000000000000        0x0 /Users/user/pebble-dev/PebbleSDK-2.2/arm-cs-tools/bin/../lib/gcc/arm-none-eabi/4.7.2/thumb2/crtbegin.o

.data           0x00000000000023e4       0x48
 *(.data)
 .data          0x00000000000023e4        0x0 /Users/user/pebble-dev/PebbleSDK-2.2/arm-cs-tools/bin/../lib/gcc/arm-none-eabi/4.7.2/thumb2/crti.o
 .data          0x00000000000023e4        0x4 /Users/user/pebble-dev/PebbleSDK-2.2/arm-cs-tools/bin/../lib/gcc/arm-none-eabi/4.7.2/thumb2/crtbegin.o
                0x00000000000023e4                __dso_handle
 .data          0x00000000000023e8        0x0 src/common.c.12.o
 .data          0x00000000000023e8        0x0 src/laps.c.12.o
 .data          0x00000000000023e8        0x0 src/spritz.c.12.o
 .data          0x00000000000023e8        0x0 src/stopwatch.c.12.o
 .data          0x00000000000023e8        0x0 appinfo.auto.c.12.o
 .data          0x00000000000023e8        0x0 /Users/user/pebble-dev/PebbleSDK-2.2/Pebble/lib/libpebble.a(tmpZR3mVYpebble.o)
 .data          0x00000000000023e8        0x0 /Users/user/pebble-dev/PebbleSDK-2.2/arm-cs-tools/bin/../lib/gcc/arm-none-eabi/4.7.2/thumb2/libgcc.a(_arm_addsubdf3.o)
 .data          0x00000000000023e8        0x0 /Users/user/pebble-dev/PebbleSDK-2.2/arm-cs-tools/bin/../lib/gcc/arm-none-eabi/4.7.2/thumb2/libgcc.a(_arm_muldivdf3.o)
 .data          0x00000000000023e8        0x0 /Users/user/pebble-dev/PebbleSDK-2.2/arm-cs-tools/bin/../lib/gcc/arm-none-eabi/4.7.2/thumb2/libgcc.a(_arm_cmpdf2.o)
 .data          0x00000000000023e8        0x0 /Users/user/pebble-dev/PebbleSDK-2.2/arm-cs-tools/bin/../lib/gcc/arm-none-eabi/4.7.2/thumb2/libgcc.a(_arm_fixdfsi.o)
 .data          0x00000000000023e8        0x0 /Users/user/pebble-dev/PebbleSDK-2.2/arm-cs-tools/bin/../lib/gcc/arm-none-eabi/4.7.2/thumb2/libgcc.a(_arm_fixunsdfsi.o)
 .data          0x00000000000023e8        0x0 /Users/user/pebble-dev/PebbleSDK-2.2/arm-cs-tools/bin/../lib/gcc/arm-none-eabi/4.7.2/thumb2/crtend.o
 .data          0x00000000000023e8        0x0 /Users/user/pebble-dev/PebbleSDK-2.2/arm-cs-tools/bin/../lib/gcc/arm-none-eabi/4.7.2/thumb2/crtn.o
 *(.data.*)
 .data.deciseconds_time.6625
                0x00000000000023e8        0x3 src/stopwatch.c.12.o
 .data.seconds_time.6626
                0x00000000000023eb        0x4 src/stopwatch.c.12.o
 .data.lap_times
                0x00000000000023ef       0x37 src/stopwatch.c.12.o
 .data.big_time.6624
                0x0000000000002426        0x6 src/stopwatch.c.12.o

.igot.plt       0x000000000000242c        0x0
 .igot.plt      0x0000000000000000        0x0 /Users/user/pebble-dev/PebbleSDK-2.2/arm-cs-tools/bin/../lib/gcc/arm-none-eabi/4.7.2/thumb2/crtbegin.o

.bss            0x0000000000002430      0x4c8
 *(.bss)
 *(.bss.*)
 .bss.scroll_view
                0x0000000000002430        0x4 src/laps.c.12.o
 .bss.lap_text  0x0000000000002434      0x1c2 src/laps.c.12.o
 *fill*         0x00000000000025f6        0x2 
 .bss.total_laps
                0x00000000000025f8        0x4 src/laps.c.12.o
 .bss.lap_layers
                0x00000000000025fc       0x78 src/laps.c.12.o
 .bss.no_laps_note
                0x0000000000002674        0x4 src/laps.c.12.o
 .bss.laps_font
                0x0000000000002678        0x4 src/laps.c.12.o
 *fill*         0x000000000000267c        0x4 
 .bss.lap_times
                0x0000000000002680       0xf0 src/laps.c.12.o
 .bss.times_displayed
                0x0000000000002770        0x4 src/laps.c.12.o
 .bss.window    0x0000000000002774        0x4 src/laps.c.12.o
 .bss.system_font
                0x0000000000002778        0x4 src/spritz.c.12.o
 .bss.i         0x000000000000277c        0x4 src/spritz.c.12.o
 .bss.common_font
                0x0000000000002780        0x4 src/spritz.c.12.o
 .bss.stopSpritz
                0x0000000000002784        0x1 src/spritz.c.12.o
 *fill*         0x0000000000002785        0x3 
 .bss.spritzLayers
                0x0000000000002788       0x38 src/spritz.c.12.o
 .bss.window    0x00000000000027c0        0x4 src/spritz.c.12.o
 .bss.animations.6647
                0x00000000000027c4       0x14 src/stopwatch.c.12.o
 .bss.entry_animation.6659
                0x00000000000027d8        0x4 src/stopwatch.c.12.o
 .bss.laps_font
                0x00000000000027dc        0x4 src/stopwatch.c.12.o
 .bss.pause_time
                0x00000000000027e0        0x8 src/stopwatch.c.12.o
 .bss.button_bitmap
                0x00000000000027e8        0x4 src/stopwatch.c.12.o
 .bss.big_time_layer
                0x00000000000027ec        0x4 src/stopwatch.c.12.o
 .bss.next_lap_layer
                0x00000000000027f0        0x4 src/stopwatch.c.12.o
 .bss.sync      0x00000000000027f4       0x20 src/stopwatch.c.12.o
 .bss.big_font  0x0000000000002814        0x4 src/stopwatch.c.12.o
 .bss.seconds_font
                0x0000000000002818        0x4 src/stopwatch.c.12.o
 .bss.busy_animating
                0x000000000000281c        0x4 src/stopwatch.c.12.o
 .bss.targets.6612
                0x0000000000002820       0x28 src/stopwatch.c.12.o
 .bss.animations.6611
                0x0000000000002848       0x14 src/stopwatch.c.12.o
 .bss.sync_buffer
                0x000000000000285c       0x20 src/stopwatch.c.12.o
 .bss.line_layer
                0x000000000000287c        0x4 src/stopwatch.c.12.o
 .bss.button_labels
                0x0000000000002880        0x4 src/stopwatch.c.12.o
 .bss.logging_session_end
                0x0000000000002884        0x4 src/stopwatch.c.12.o
 .bss.window    0x0000000000002888        0x4 src/stopwatch.c.12.o
 .bss.lap_layers
                0x000000000000288c       0x14 src/stopwatch.c.12.o
 .bss.elapsed_time
                0x00000000000028a0        0x8 src/stopwatch.c.12.o
 .bss.seconds_time_layer
                0x00000000000028a8        0x4 src/stopwatch.c.12.o
 *fill*         0x00000000000028ac        0x4 
 .bss.start_time
                0x00000000000028b0        0x8 src/stopwatch.c.12.o
 .bss.started   0x00000000000028b8        0x1 src/stopwatch.c.12.o
 *fill*         0x00000000000028b9        0x1 
 .bss.targets.6648
                0x00000000000028ba       0x28 src/stopwatch.c.12.o
 *fill*         0x00000000000028e2        0x2 
 .bss.location_layer
                0x00000000000028e4        0x4 src/stopwatch.c.12.o
 .bss.last_lap_time
                0x00000000000028e8        0x8 src/stopwatch.c.12.o
 .bss.update_timer
                0x00000000000028f0        0x4 src/stopwatch.c.12.o
 .bss.logging_session
                0x00000000000028f4        0x4 src/stopwatch.c.12.o

DISCARD
 libc.a(*)
 libm.a(*)
 libgcc.a(*)
 *(.eh_frame)
OUTPUT(/Users/user/pebble-stopwatch-master/build/pebble-app.elf elf32-littlearm)

.ARM.attributes
                0x0000000000000000       0x27
 .ARM.attributes
                0x0000000000000000       0x19 /Users/user/pebble-dev/PebbleSDK-2.2/arm-cs-tools/bin/../lib/gcc/arm-none-eabi/4.7.2/thumb2/crti.o
 .ARM.attributes
                0x0000000000000019       0x29 /Users/user/pebble-dev/PebbleSDK-2.2/arm-cs-tools/bin/../lib/gcc/arm-none-eabi/4.7.2/thumb2/crtbegin.o
 .ARM.attributes
                0x0000000000000042       0x33 src/common.c.12.o
 .ARM.attributes
                0x0000000000000075       0x33 src/laps.c.12.o
 .ARM.attributes
                0x00000000000000a8       0x33 src/spritz.c.12.o
 .ARM.attributes
                0x00000000000000db       0x33 src/stopwatch.c.12.o
 .ARM.attributes
                0x000000000000010e       0x33 appinfo.auto.c.12.o
 .ARM.attributes
                0x0000000000000141       0x21 /Users/user/pebble-dev/PebbleSDK-2.2/Pebble/lib/libpebble.a(tmpZR3mVYpebble.o)
 .ARM.attributes
                0x0000000000000162       0x19 /Users/user/pebble-dev/PebbleSDK-2.2/arm-cs-tools/bin/../lib/gcc/arm-none-eabi/4.7.2/thumb2/libgcc.a(_arm_addsubdf3.o)
 .ARM.attributes
                0x000000000000017b       0x19 /Users/user/pebble-dev/PebbleSDK-2.2/arm-cs-tools/bin/../lib/gcc/arm-none-eabi/4.7.2/thumb2/libgcc.a(_arm_muldivdf3.o)
 .ARM.attributes
                0x0000000000000194       0x19 /Users/user/pebble-dev/PebbleSDK-2.2/arm-cs-tools/bin/../lib/gcc/arm-none-eabi/4.7.2/thumb2/libgcc.a(_arm_cmpdf2.o)
 .ARM.attributes
                0x00000000000001ad       0x19 /Users/user/pebble-dev/PebbleSDK-2.2/arm-cs-tools/bin/../lib/gcc/arm-none-eabi/4.7.2/thumb2/libgcc.a(_arm_fixdfsi.o)
 .ARM.attributes
                0x00000000000001c6       0x19 /Users/user/pebble-dev/PebbleSDK-2.2/arm-cs-tools/bin/../lib/gcc/arm-none-eabi/4.7.2/thumb2/libgcc.a(_arm_fixunsdfsi.o)
 .ARM.attributes
                0x00000000000001df       0x29 /Users/user/pebble-dev/PebbleSDK-2.2/arm-cs-tools/bin/../lib/gcc/arm-none-eabi/4.7.2/thumb2/crtend.o
 .ARM.attributes
                0x0000000000000208       0x19 /Users/user/pebble-dev/PebbleSDK-2.2/arm-cs-tools/bin/../lib/gcc/arm-none-eabi/4.7.2/thumb2/crtn.o

.comment        0x0000000000000000       0x4e
 .comment       0x0000000000000000       0x4e /Users/user/pebble-dev/PebbleSDK-2.2/arm-cs-tools/bin/../lib/gcc/arm-none-eabi/4.7.2/thumb2/crtbegin.o
                                         0x4f (size before relaxing)
 .comment       0x0000000000000000       0x4f src/common.c.12.o
 .comment       0x0000000000000000       0x4f src/laps.c.12.o
 .comment       0x0000000000000000       0x4f src/spritz.c.12.o
 .comment       0x0000000000000000       0x4f src/stopwatch.c.12.o
 .comment       0x0000000000000000       0x4f appinfo.auto.c.12.o
 .comment       0x0000000000000000       0x4f /Users/user/pebble-dev/PebbleSDK-2.2/arm-cs-tools/bin/../lib/gcc/arm-none-eabi/4.7.2/thumb2/crtend.o

.debug_info     0x0000000000000000     0x486c
 .debug_info    0x0000000000000000      0x23e src/common.c.12.o
 .debug_info    0x000000000000023e      0xd8a src/laps.c.12.o
 .debug_info    0x0000000000000fc8      0x83f src/spritz.c.12.o
 .debug_info    0x0000000000001807     0x2988 src/stopwatch.c.12.o
 .debug_info    0x000000000000418f      0x340 appinfo.auto.c.12.o
 .debug_info    0x00000000000044cf       0xb9 /Users/user/pebble-dev/PebbleSDK-2.2/arm-cs-tools/bin/../lib/gcc/arm-none-eabi/4.7.2/thumb2/libgcc.a(_arm_addsubdf3.o)
 .debug_info    0x0000000000004588       0xb9 /Users/user/pebble-dev/PebbleSDK-2.2/arm-cs-tools/bin/../lib/gcc/arm-none-eabi/4.7.2/thumb2/libgcc.a(_arm_muldivdf3.o)
 .debug_info    0x0000000000004641       0xb9 /Users/user/pebble-dev/PebbleSDK-2.2/arm-cs-tools/bin/../lib/gcc/arm-none-eabi/4.7.2/thumb2/libgcc.a(_arm_cmpdf2.o)
 .debug_info    0x00000000000046fa       0xb9 /Users/user/pebble-dev/PebbleSDK-2.2/arm-cs-tools/bin/../lib/gcc/arm-none-eabi/4.7.2/thumb2/libgcc.a(_arm_fixdfsi.o)
 .debug_info    0x00000000000047b3       0xb9 /Users/user/pebble-dev/PebbleSDK-2.2/arm-cs-tools/bin/../lib/gcc/arm-none-eabi/4.7.2/thumb2/libgcc.a(_arm_fixunsdfsi.o)

.debug_abbrev   0x0000000000000000      0xc71
 .debug_abbrev  0x0000000000000000      0x101 src/common.c.12.o
 .debug_abbrev  0x0000000000000101      0x2ce src/laps.c.12.o
 .debug_abbrev  0x00000000000003cf      0x2ad src/spritz.c.12.o
 .debug_abbrev  0x000000000000067c      0x4e6 src/stopwatch.c.12.o
 .debug_abbrev  0x0000000000000b62       0xab appinfo.auto.c.12.o
 .debug_abbrev  0x0000000000000c0d       0x14 /Users/user/pebble-dev/PebbleSDK-2.2/arm-cs-tools/bin/../lib/gcc/arm-none-eabi/4.7.2/thumb2/libgcc.a(_arm_addsubdf3.o)
 .debug_abbrev  0x0000000000000c21       0x14 /Users/user/pebble-dev/PebbleSDK-2.2/arm-cs-tools/bin/../lib/gcc/arm-none-eabi/4.7.2/thumb2/libgcc.a(_arm_muldivdf3.o)
 .debug_abbrev  0x0000000000000c35       0x14 /Users/user/pebble-dev/PebbleSDK-2.2/arm-cs-tools/bin/../lib/gcc/arm-none-eabi/4.7.2/thumb2/libgcc.a(_arm_cmpdf2.o)
 .debug_abbrev  0x0000000000000c49       0x14 /Users/user/pebble-dev/PebbleSDK-2.2/arm-cs-tools/bin/../lib/gcc/arm-none-eabi/4.7.2/thumb2/libgcc.a(_arm_fixdfsi.o)
 .debug_abbrev  0x0000000000000c5d       0x14 /Users/user/pebble-dev/PebbleSDK-2.2/arm-cs-tools/bin/../lib/gcc/arm-none-eabi/4.7.2/thumb2/libgcc.a(_arm_fixunsdfsi.o)

.debug_loc      0x0000000000000000      0xf03
 .debug_loc     0x0000000000000000       0xe5 src/common.c.12.o
 .debug_loc     0x00000000000000e5      0x25e src/laps.c.12.o
 .debug_loc     0x0000000000000343      0x1cd src/spritz.c.12.o
 .debug_loc     0x0000000000000510      0x9f3 src/stopwatch.c.12.o

.debug_aranges  0x0000000000000000      0x268
 .debug_aranges
                0x0000000000000000       0x28 src/common.c.12.o
 .debug_aranges
                0x0000000000000028       0x60 src/laps.c.12.o
 .debug_aranges
                0x0000000000000088       0x50 src/spritz.c.12.o
 .debug_aranges
                0x00000000000000d8       0xd8 src/stopwatch.c.12.o
 .debug_aranges
                0x00000000000001b0       0x18 appinfo.auto.c.12.o
 .debug_aranges
                0x00000000000001c8       0x20 /Users/user/pebble-dev/PebbleSDK-2.2/arm-cs-tools/bin/../lib/gcc/arm-none-eabi/4.7.2/thumb2/libgcc.a(_arm_addsubdf3.o)
 .debug_aranges
                0x00000000000001e8       0x20 /Users/user/pebble-dev/PebbleSDK-2.2/arm-cs-tools/bin/../lib/gcc/arm-none-eabi/4.7.2/thumb2/libgcc.a(_arm_muldivdf3.o)
 .debug_aranges
                0x0000000000000208       0x20 /Users/user/pebble-dev/PebbleSDK-2.2/arm-cs-tools/bin/../lib/gcc/arm-none-eabi/4.7.2/thumb2/libgcc.a(_arm_cmpdf2.o)
 .debug_aranges
                0x0000000000000228       0x20 /Users/user/pebble-dev/PebbleSDK-2.2/arm-cs-tools/bin/../lib/gcc/arm-none-eabi/4.7.2/thumb2/libgcc.a(_arm_fixdfsi.o)
 .debug_aranges
                0x0000000000000248       0x20 /Users/user/pebble-dev/PebbleSDK-2.2/arm-cs-tools/bin/../lib/gcc/arm-none-eabi/4.7.2/thumb2/libgcc.a(_arm_fixunsdfsi.o)

.debug_ranges   0x0000000000000000      0x320
 .debug_ranges  0x0000000000000000       0x18 src/common.c.12.o
 .debug_ranges  0x0000000000000018       0xa8 src/laps.c.12.o
 .debug_ranges  0x00000000000000c0       0xc0 src/spritz.c.12.o
 .debug_ranges  0x0000000000000180      0x1a0 src/stopwatch.c.12.o

.debug_line     0x0000000000000000     0x1535
 .debug_line    0x0000000000000000      0x25f src/common.c.12.o
 .debug_line    0x000000000000025f      0x392 src/laps.c.12.o
 .debug_line    0x00000000000005f1      0x2b9 src/spritz.c.12.o
 .debug_line    0x00000000000008aa      0x531 src/stopwatch.c.12.o
 .debug_line    0x0000000000000ddb      0x116 appinfo.auto.c.12.o
 .debug_line    0x0000000000000ef1      0x20a /Users/user/pebble-dev/PebbleSDK-2.2/arm-cs-tools/bin/../lib/gcc/arm-none-eabi/4.7.2/thumb2/libgcc.a(_arm_addsubdf3.o)
 .debug_line    0x00000000000010fb      0x226 /Users/user/pebble-dev/PebbleSDK-2.2/arm-cs-tools/bin/../lib/gcc/arm-none-eabi/4.7.2/thumb2/libgcc.a(_arm_muldivdf3.o)
 .debug_line    0x0000000000001321      0x10c /Users/user/pebble-dev/PebbleSDK-2.2/arm-cs-tools/bin/../lib/gcc/arm-none-eabi/4.7.2/thumb2/libgcc.a(_arm_cmpdf2.o)
 .debug_line    0x000000000000142d       0x86 /Users/user/pebble-dev/PebbleSDK-2.2/arm-cs-tools/bin/../lib/gcc/arm-none-eabi/4.7.2/thumb2/libgcc.a(_arm_fixdfsi.o)
 .debug_line    0x00000000000014b3       0x82 /Users/user/pebble-dev/PebbleSDK-2.2/arm-cs-tools/bin/../lib/gcc/arm-none-eabi/4.7.2/thumb2/libgcc.a(_arm_fixunsdfsi.o)

.debug_str      0x0000000000000000     0x186f
 .debug_str     0x0000000000000000      0x123 src/common.c.12.o
                                        0x17c (size before relaxing)
 .debug_str     0x0000000000000123      0x699 src/laps.c.12.o
                                        0x831 (size before relaxing)
 .debug_str     0x00000000000007bc      0x19b src/spritz.c.12.o
                                        0x566 (size before relaxing)
 .debug_str     0x0000000000000957      0xdc9 src/stopwatch.c.12.o
                                       0x164a (size before relaxing)
 .debug_str     0x0000000000001720      0x14f appinfo.auto.c.12.o
                                        0x330 (size before relaxing)

.debug_frame    0x0000000000000000      0x4b8
 .debug_frame   0x0000000000000000       0x58 src/common.c.12.o
 .debug_frame   0x0000000000000058      0x114 src/laps.c.12.o
 .debug_frame   0x000000000000016c       0xd4 src/spritz.c.12.o
 .debug_frame   0x0000000000000240      0x278 src/stopwatch.c.12.o
